
control_motor.elf:     file format elf32-littleriscv
control_motor.elf
architecture: riscv:rv32, flags 0x00000112:
EXEC_P, HAS_SYMS, D_PAGED
start address 0x00000000

Program Header:
    LOAD off    0x00001000 vaddr 0x00000000 paddr 0x00000000 align 2**12
         filesz 0x00003aac memsz 0x00003aac flags r-x
    LOAD off    0x00005000 vaddr 0x20000000 paddr 0x00003aac align 2**12
         filesz 0x000000a0 memsz 0x00000198 flags rw-
    LOAD off    0x00005800 vaddr 0x20004800 paddr 0x20004800 align 2**12
         filesz 0x00000000 memsz 0x00000800 flags rw-

Sections:
Idx Name          Size      VMA       LMA       File off  Algn
  0 .init         00000004  00000000  00000000  00001000  2**1
                  CONTENTS, ALLOC, LOAD, READONLY, CODE
  1 .vector       000000fc  00000004  00000004  00001004  2**1
                  CONTENTS, ALLOC, LOAD, READONLY, CODE
  2 .text         000039ac  00000100  00000100  00001100  2**2
                  CONTENTS, ALLOC, LOAD, READONLY, CODE
  3 .fini         00000000  00003aac  00003aac  000050a0  2**0
                  CONTENTS, ALLOC, LOAD, CODE
  4 .dalign       00000000  20000000  20000000  000050a0  2**0
                  CONTENTS
  5 .dlalign      00000000  00003aac  00003aac  000050a0  2**0
                  CONTENTS
  6 .data         000000a0  20000000  00003aac  00005000  2**2
                  CONTENTS, ALLOC, LOAD, DATA
  7 .bss          000000f8  200000a0  00003b4c  000050a0  2**2
                  ALLOC
  8 .stack        00000800  20004800  20004800  00005800  2**0
                  ALLOC
  9 .debug_info   00010c26  00000000  00000000  000050a0  2**0
                  CONTENTS, READONLY, DEBUGGING
 10 .debug_abbrev 00002f1a  00000000  00000000  00015cc6  2**0
                  CONTENTS, READONLY, DEBUGGING
 11 .debug_loc    00003ec2  00000000  00000000  00018be0  2**0
                  CONTENTS, READONLY, DEBUGGING
 12 .debug_aranges 000008a8  00000000  00000000  0001caa8  2**3
                  CONTENTS, READONLY, DEBUGGING
 13 .debug_ranges 00000a48  00000000  00000000  0001d350  2**3
                  CONTENTS, READONLY, DEBUGGING
 14 .debug_line   0000bec5  00000000  00000000  0001dd98  2**0
                  CONTENTS, READONLY, DEBUGGING
 15 .debug_str    00002b4a  00000000  00000000  00029c5d  2**0
                  CONTENTS, READONLY, DEBUGGING
 16 .comment      00000033  00000000  00000000  0002c7a7  2**0
                  CONTENTS, READONLY
 17 .debug_frame  00001d48  00000000  00000000  0002c7dc  2**2
                  CONTENTS, READONLY, DEBUGGING
 18 .stab         00000084  00000000  00000000  0002e524  2**2
                  CONTENTS, READONLY, DEBUGGING
 19 .stabstr      00000117  00000000  00000000  0002e5a8  2**0
                  CONTENTS, READONLY, DEBUGGING
SYMBOL TABLE:
00000000 l    d  .init	00000000 .init
00000004 l    d  .vector	00000000 .vector
00000100 l    d  .text	00000000 .text
00003aac l    d  .fini	00000000 .fini
20000000 l    d  .dalign	00000000 .dalign
00003aac l    d  .dlalign	00000000 .dlalign
20000000 l    d  .data	00000000 .data
200000a0 l    d  .bss	00000000 .bss
20004800 l    d  .stack	00000000 .stack
00000000 l    d  .debug_info	00000000 .debug_info
00000000 l    d  .debug_abbrev	00000000 .debug_abbrev
00000000 l    d  .debug_loc	00000000 .debug_loc
00000000 l    d  .debug_aranges	00000000 .debug_aranges
00000000 l    d  .debug_ranges	00000000 .debug_ranges
00000000 l    d  .debug_line	00000000 .debug_line
00000000 l    d  .debug_str	00000000 .debug_str
00000000 l    d  .comment	00000000 .comment
00000000 l    d  .debug_frame	00000000 .debug_frame
00000000 l    d  .stab	00000000 .stab
00000000 l    d  .stabstr	00000000 .stabstr
00000000 l    df *ABS*	00000000 ./Startup/startup_ch32v20x_D6.o
00000004 l       .vector	00000000 _vector_base
00000000 l    df *ABS*	00000000 HX711.c
00000208 l     F .text	0000009e HX711_Read_Unsafe
00000000 l    df *ABS*	00000000 L298N.c
00000000 l    df *ABS*	00000000 TMC2209.c
00000000 l    df *ABS*	00000000 ch32_app.c
00000544 l     F .text	0000002a build_flags
0000056e l     F .text	00000048 send_idle_heartbeat
000005b6 l     F .text	0000001a ensure_hx711_ready
000005d0 l     F .text	0000003c get_weight_avg.constprop.5
0000060c l     F .text	00000036 send_proto_state_ctx.constprop.7
00000642 l     F .text	0000002a send_fault
0000066c l     F .text	0000004a send_stage.constprop.6
000006b6 l     F .text	000000ae pump_runtime_packets
00000764 l     F .text	00000030 delay_ms_with_abort
00000794 l     F .text	00000062 stepper_move_interruptible.constprop.4
000007f6 l     F .text	0000004c close_to_safe_locked
200000a4 l     O .bss	00000001 s_action_busy
200000a8 l     O .bss	00000002 s_action_rsp
200000aa l     O .bss	00000001 s_action_rsp_valid
200000ab l     O .bss	00000001 s_hx711_ready
200000ac l     O .bss	00000004 s_idle_ms
200000b0 l     O .bss	00000001 s_last_error
200000b4 l     O .bss	00000004 s_last_weight_g
200000b8 l     O .bss	00000001 s_locked
200000bc l     O .bss	00000002 s_rsp
20000084 l     O .data	00000001 s_current_stage
00000000 l    df *ABS*	00000000 ch32v20x_it.c
00000000 l    df *ABS*	00000000 esp32_com.c
00000a78 l     F .text	0000003e esp32_comm_crc16_ibm
00000ab6 l     F .text	0000003a esp32_comm_send_bytes.part.0.constprop.2
200000dc l     O .bss	00000038 s_proto_buf
20000114 l     O .bss	00000080 s_rx_fifo
200000be l     O .bss	00000001 s_proto_cmd
200000bf l     O .bss	00000001 s_proto_index
200000c0 l     O .bss	00000001 s_proto_len
200000c1 l     O .bss	00000001 s_proto_seq
200000c2 l     O .bss	00000001 s_proto_state
200000c4 l     O .bss	00000002 s_rx_head
200000c6 l     O .bss	00000002 s_rx_tail
00000000 l    df *ABS*	00000000 inner_door.c
00000000 l    df *ABS*	00000000 main.c
00000000 l    df *ABS*	00000000 system_ch32v20x.c
00000000 l    df *ABS*	00000000 ch32v20x_gpio.c
00000000 l    df *ABS*	00000000 ch32v20x_misc.c
00000000 l    df *ABS*	00000000 ch32v20x_rcc.c
20000010 l     O .data	00000010 APBAHBPrescTable
2000008c l     O .data	00000004 ADCPrescTable
00000000 l    df *ABS*	00000000 ch32v20x_tim.c
00000000 l    df *ABS*	00000000 ch32v20x_usart.c
00000000 l    df *ABS*	00000000 debug.c
200000d0 l     O .bss	00000002 p_ms
200000d2 l     O .bss	00000001 p_us
20000090 l     O .data	00000004 curbrk.4672
00000000 l    df *ABS*	00000000 libgcc2.c
00000000 l    df *ABS*	00000000 libgcc2.c
00000000 l    df *ABS*	00000000 divsf3.c
00000000 l    df *ABS*	00000000 fixsfsi.c
00000000 l    df *ABS*	00000000 floatsisf.c
00000000 l    df *ABS*	00000000 libgcc2.c
00000000 l    df *ABS*	00000000 memcpy.c
00000000 l    df *ABS*	00000000 printf.c
00000000 l    df *ABS*	00000000 puts.c
00000000 l    df *ABS*	00000000 wbuf.c
00000000 l    df *ABS*	00000000 wsetup.c
00000000 l    df *ABS*	00000000 fflush.c
00000000 l    df *ABS*	00000000 findfp.c
000029be l     F .text	00000066 std
00000000 l    df *ABS*	00000000 fwalk.c
00000000 l    df *ABS*	00000000 makebuf.c
00000000 l    df *ABS*	00000000 nano-mallocr.c
00000000 l    df *ABS*	00000000 nano-mallocr.c
00000000 l    df *ABS*	00000000 nano-vfprintf.c
00002e50 l     F .text	00000028 __sfputc_r
00000000 l    df *ABS*	00000000 nano-vfprintf_i.c
00000000 l    df *ABS*	00000000 sbrkr.c
00000000 l    df *ABS*	00000000 stdio.c
00000000 l    df *ABS*	00000000 writer.c
00000000 l    df *ABS*	00000000 closer.c
00000000 l    df *ABS*	00000000 fstatr.c
00000000 l    df *ABS*	00000000 isattyr.c
00000000 l    df *ABS*	00000000 lseekr.c
00000000 l    df *ABS*	00000000 memchr.c
00000000 l    df *ABS*	00000000 mlock.c
00000000 l    df *ABS*	00000000 readr.c
00000000 l    df *ABS*	00000000 close.c
00000000 l    df *ABS*	00000000 fstat.c
00000000 l    df *ABS*	00000000 isatty.c
00000000 l    df *ABS*	00000000 lseek.c
00000000 l    df *ABS*	00000000 read.c
00000000 l    df *ABS*	00000000 libgcc2.c
00000000 l    df *ABS*	00000000 impure.c
20000020 l     O .data	00000060 impure_data
00000000 l    df *ABS*	00000000 reent.c
0000120e  w      .text	00000000 EXTI2_IRQHandler
00003644 g     F .text	00000028 _isatty_r
00002590 g     F .text	000000d4 _puts_r
0000366c g     F .text	0000002c _lseek_r
20000080 g     O .data	00000004 HX711_Scale
000018f4 g     F .text	000003d4 .hidden __divdi3
00000c74 g     F .text	0000020c ESP32_Comm_ReadPacket
00002550 g     F .text	00000040 printf
20000880 g       .data	00000000 __global_pointer$
00000108 g     F .text	00000028 .hidden __riscv_save_8
0000120e  w      .text	00000000 TIM1_CC_IRQHandler
0000358e g     F .text	00000030 __sseek
00002a74 g     F .text	0000006c __sinit
00002670 g     F .text	000000bc __swbuf_r
00000a68 g     F .text	00000010 HardFault_Handler
00002a2e g     F .text	00000046 __sfmoreglue
000036b2 g     F .text	00000002 __malloc_unlock
00000154 g     F .text	0000000c .hidden __riscv_restore_3
0000205a g     F .text	000002ae .hidden __divsf3
0000162a g     F .text	0000000e TIM_OC1PreloadConfig
0000120e  w      .text	00000000 SysTick_Handler
000013d0 g     F .text	00000062 NVIC_Init
0000120e  w      .text	00000000 PVD_IRQHandler
00000140 g     F .text	00000020 .hidden __riscv_restore_10
00000a66 g     F .text	00000002 NMI_Handler
00002308 g     F .text	00000062 .hidden __fixsfsi
0000120e  w      .text	00000000 EXTI3_IRQHandler
00000108 g     F .text	00000028 .hidden __riscv_save_11
00000520 g     F .text	00000024 TMC2209_SetDir
0000088c g     F .text	000001da CH32_App_RunOnce
0000173e g     F .text	0000000a USART_GetFlagStatus
0000361a g     F .text	0000002a _fstat_r
20000194 g     O .bss	00000004 errno
200000a0 g       .bss	00000000 _sbss
00000800 g       *ABS*	00000000 __stack_size
00001836 g     F .text	0000005a USART_Printf_Init
0000035a g     F .text	00000078 HX711_Tare
0000120e  w      .text	00000000 USBFS_IRQHandler
00000154 g     F .text	0000000c .hidden __riscv_restore_2
00000842 g     F .text	0000004a CH32_App_Init
0000249e g     F .text	000000b2 memcpy
00002a24 g     F .text	0000000a _cleanup_r
0000120e  w      .text	00000000 EXTI0_IRQHandler
0000120e  w      .text	00000000 I2C2_EV_IRQHandler
000015f8 g     F .text	00000018 TIM_Cmd
00002664 g     F .text	0000000c puts
000004b0 g     F .text	00000014 TMC2209_Enable
20000088 g     O .data	00000004 SystemCoreClock
00001736 g     F .text	00000008 USART_ReceiveData
200000a0 g     O .bss	00000004 HX711_Offset
000036ec g     F .text	0000000c _fstat
00000004 g       .init	00000000 _einit
000003f6 g     F .text	00000040 PushRod_Init
000014f0 g     F .text	0000001e RCC_APB2PeriphClockCmd
00000100 g     F .text	00000030 .hidden __riscv_save_12
0000120e  w      .text	00000000 ADC1_2_IRQHandler
000003d2 g     F .text	00000024 HX711_Get_Weight
00001296 g     F .text	000000f2 GPIO_Init
0000120e  w      .text	00000000 Break_Point_Handler
00000140 g     F .text	00000020 .hidden __riscv_restore_11
200000cc g     O .bss	00000004 NVIC_Priority_Group
0000120e  w      .text	00000000 SPI1_IRQHandler
000016e2 g     F .text	00000016 USART_Cmd
000034f0 g     F .text	0000002a _sbrk_r
0000120e  w      .text	00000000 TAMPER_IRQHandler
00000130 g     F .text	0000000c .hidden __riscv_save_1
00000154 g     F .text	0000000c .hidden __riscv_restore_0
000036b4 g     F .text	0000002c _read_r
00000116 g     F .text	0000001a .hidden __riscv_save_7
00001790 g     F .text	00000014 USART_ClearITPendingBit
0000150e g     F .text	0000001e RCC_APB1PeriphClockCmd
0000120e  w      .text	00000000 Ecall_M_Mode_Handler
20004800 g       .stack	00000000 _heap_end
000036f8 g     F .text	0000000c _isatty
000017ca g     F .text	00000036 Delay_Us
20000098 g     O .data	00000004 _global_impure_ptr
0000014a g     F .text	00000016 .hidden __riscv_restore_5
00001cc8 g     F .text	00000392 .hidden __udivdi3
0000120e  w      .text	00000000 DMA1_Channel4_IRQHandler
000018ce g     F .text	00000026 _sbrk
000004d8 g     F .text	00000048 TMC2209_Init
0000014a g     F .text	00000016 .hidden __riscv_restore_6
0000120e  w      .text	00000000 USART3_IRQHandler
0000120e  w      .text	00000000 RTC_IRQHandler
20000198 g       .bss	00000000 _ebss
00001754 g     F .text	0000003c USART_GetITStatus
0000120e  w      .text	00000000 DMA1_Channel7_IRQHandler
0000158e g     F .text	0000006a TIM_OC1Init
0000120e  w      .text	00000000 CAN1_RX1_IRQHandler
000017a4 g     F .text	00000026 Delay_Init
000013a2 g     F .text	00000014 GPIO_SetBits
0000120e  w      .text	00000000 TIM4_IRQHandler
00001610 g     F .text	0000001a TIM_ARRPreloadConfig
00000108 g     F .text	00000028 .hidden __riscv_save_9
00000fbc g     F .text	000000ba InnerDoor_Init
00003a10 g     O .text	00000020 __sf_fake_stderr
00000116 g     F .text	0000001a .hidden __riscv_save_4
0000120e  w      .text	00000000 I2C1_EV_IRQHandler
00000f34 g     F .text	00000056 InnerDoor_SetAngle
00001432 g     F .text	000000be RCC_GetClocksFreq
0000120e  w      .text	00000000 DMA1_Channel6_IRQHandler
00002430 g     F .text	0000006e .hidden __clzsi2
00002e78 g     F .text	00000042 __sfputs_r
0000120e  w      .text	00000000 UART4_IRQHandler
00003698 g     F .text	00000018 memchr
0000163c g     F .text	000000a6 USART_Init
00002cd4 g     F .text	000000a8 _free_r
0000120e  w      .text	00000000 TIM3_IRQHandler
0000120e  w      .text	00000000 RCC_IRQHandler
00000130 g     F .text	0000000c .hidden __riscv_save_3
0000120e  w      .text	00000000 TIM1_TRG_COM_IRQHandler
0000120e  w      .text	00000000 DMA1_Channel1_IRQHandler
00000000 g       .init	00000000 _start
20000000 g     O .data	00000010 AHBPrescTable
00003704 g     F .text	0000000c _lseek
0000236a g     F .text	000000c6 .hidden __floatsisf
0000120e  w      .text	00000000 EXTI15_10_IRQHandler
00000af0 g     F .text	000000d0 ESP32_Comm_Init
000016f8 g     F .text	00000036 USART_ITConfig
0000120e  w      .text	00000000 DMA1_Channel8_IRQHandler
00000e80 g     F .text	0000004a ESP32_Comm_SendProtoState
000013b6 g     F .text	00000014 GPIO_ResetBits
000035f2 g     F .text	00000028 _close_r
20000000 g       .dalign	00000000 _data_vma
200000c8 g     O .bss	00000001 MCU_Version
0000272c g     F .text	000000fc __swsetup_r
0000120e  w      .text	00000000 EXTI9_5_IRQHandler
00002ae0 g     F .text	000000a0 __sfp
00000108 g     F .text	00000028 .hidden __riscv_save_10
0000351a g     F .text	0000002c __sread
000036b0 g     F .text	00000002 __malloc_lock
0000014a g     F .text	00000016 .hidden __riscv_restore_4
00000140 g     F .text	00000020 .hidden __riscv_restore_8
00002958 g     F .text	00000066 _fflush_r
00000116 g     F .text	0000001a .hidden __riscv_save_6
0000120e  w      .text	00000000 SPI2_IRQHandler
00003a30 g     O .text	00000020 __sf_fake_stdin
00000338 g     F .text	00000022 HX711_Read
00000bc0 g     F .text	00000034 ESP32_Comm_ReadByte
00000160 g     F .text	000000a8 memset
00000140 g     F .text	00000020 .hidden __riscv_restore_9
0000014a g     F .text	00000016 .hidden __riscv_restore_7
00001076 g     F .text	00000020 main
000035be g     F .text	00000006 __sclose
00002d7c g     F .text	000000d4 _malloc_r
0000120e  w      .text	00000000 DMA1_Channel5_IRQHandler
0000120e  w      .text	00000000 EXTI4_IRQHandler
00001800 g     F .text	00000036 Delay_Ms
0000120e  w      .text	00000000 USB_LP_CAN1_RX0_IRQHandler
00001748 g     F .text	0000000c USART_ClearFlag
00001096 g     F .text	000000ea SystemInit
00002550 g     F .text	00000040 iprintf
0000120e  w      .text	00000000 USB_HP_CAN1_TX_IRQHandler
00003910 g     O .text	00000100 .hidden __clz_tab
00000fa2 g     F .text	0000001a InnerDoor_Close
00000000 g       .init	00000000 _sinit
000035c4 g     F .text	0000002e _write_r
0000120e  w      .text	00000000 DMA1_Channel3_IRQHandler
00003142 g     F .text	0000010c _printf_common
20000094 g     O .data	00000004 _impure_ptr
0000120e  w      .text	00000000 TIM1_UP_IRQHandler
00000c12 g     F .text	0000002e ESP32_Comm_SendProtoAck
00002828 g     F .text	00000130 __sflush_r
00000f8a g     F .text	00000018 InnerDoor_Open
0000120e  w      .text	00000000 WWDG_IRQHandler
0000120e  w      .text	00000000 Ecall_U_Mode_Handler
0000120e  w      .text	00000000 TIM2_IRQHandler
20005000 g       .stack	00000000 _eusrstack
00000130 g     F .text	0000000c .hidden __riscv_save_2
0000120e  w      .text	00000000 SW_Handler
0000120e  w      .text	00000000 TIM1_BRK_IRQHandler
00002bea g     F .text	00000058 __swhatbuf_r
0000172e g     F .text	00000008 USART_SendData
00000c40 g     F .text	00000034 ESP32_Comm_SendProtoNack
0000120e  w      .text	00000000 EXTI1_IRQHandler
00000116 g     F .text	0000001a .hidden __riscv_save_5
000002a6 g     F .text	00000058 HX711_Init
0000031a g     F .text	0000001e HX711_WaitReady
00001890 g     F .text	0000003e _write
200000a0 g       .data	00000000 _edata
20000198 g       .bss	00000000 _end
0000152c g     F .text	00000062 TIM_TimeBaseInit
0000120e  w      .text	00000000 RTCAlarm_IRQHandler
00003aac g       .dlalign	00000000 _data_lma
0000120e  w      .text	00000000 USART2_IRQHandler
00003546 g     F .text	00000048 __swrite
00002eba g     F .text	00000288 _vfiprintf_r
0000048e g     F .text	00000022 PushRod_Stop
00002b80 g     F .text	0000006a _fwalk_reent
00001180 g     F .text	0000008e SystemCoreClockUpdate
000004c4 g     F .text	00000014 TMC2209_Disable
0000120e  w      .text	00000000 I2C2_ER_IRQHandler
0000120e  w      .text	00000000 DMA1_Channel2_IRQHandler
00003a50 g     O .text	00000020 __sf_fake_stdout
0000013c g     F .text	00000024 .hidden __riscv_restore_12
00003710 g     F .text	0000000c _read
00001210  w      .text	00000000 handle_reset
0000120e  w      .text	00000000 CAN1_SCE_IRQHandler
0000120e  w      .text	00000000 FLASH_IRQHandler
00000130 g     F .text	0000000c .hidden __riscv_save_0
0000120e  w      .text	00000000 USBFSWakeUp_IRQHandler
00000eca g     F .text	0000006a USART1_IRQHandler
00002c42 g     F .text	00000092 __smakebuf_r
0000324e g     F .text	000002a2 _printf_i
200000d8 g     O .bss	00000004 __malloc_sbrk_start
0000120e  w      .text	00000000 I2C1_ER_IRQHandler
00000436 g     F .text	0000002c PushRod_Extend
000013ca g     F .text	00000006 NVIC_PriorityGroupConfig
200000d4 g     O .bss	00000004 __malloc_free_list
00000154 g     F .text	0000000c .hidden __riscv_restore_1
00002eba g     F .text	00000288 _vfprintf_r
00001638 g     F .text	00000004 TIM_SetCompare1
00000bf4 g     F .text	0000001e ESP32_Comm_FlushRx
00001388 g     F .text	0000001a GPIO_ReadInputDataBit
0000120e  w      .text	00000000 USBWakeUp_IRQHandler
00000462 g     F .text	0000002c PushRod_Retract
000036e0 g     F .text	0000000c _close
000002fe g     F .text	0000001c HX711_Is_Ready



Disassembly of section .init:

00000000 <_sinit>:
   0:	2100106f          	j	1210 <handle_reset>

Disassembly of section .vector:

00000004 <_vector_base>:
	...
   c:	0a66                	slli	s4,s4,0x19
   e:	0000                	unimp
  10:	0a68                	addi	a0,sp,284
  12:	0000                	unimp
  14:	0000                	unimp
  16:	0000                	unimp
  18:	120e                	slli	tp,tp,0x23
	...
  22:	0000                	unimp
  24:	120e                	slli	tp,tp,0x23
  26:	0000                	unimp
  28:	120e                	slli	tp,tp,0x23
	...
  32:	0000                	unimp
  34:	120e                	slli	tp,tp,0x23
  36:	0000                	unimp
  38:	0000                	unimp
  3a:	0000                	unimp
  3c:	120e                	slli	tp,tp,0x23
  3e:	0000                	unimp
  40:	0000                	unimp
  42:	0000                	unimp
  44:	120e                	slli	tp,tp,0x23
  46:	0000                	unimp
  48:	120e                	slli	tp,tp,0x23
  4a:	0000                	unimp
  4c:	120e                	slli	tp,tp,0x23
  4e:	0000                	unimp
  50:	120e                	slli	tp,tp,0x23
  52:	0000                	unimp
  54:	120e                	slli	tp,tp,0x23
  56:	0000                	unimp
  58:	120e                	slli	tp,tp,0x23
  5a:	0000                	unimp
  5c:	120e                	slli	tp,tp,0x23
  5e:	0000                	unimp
  60:	120e                	slli	tp,tp,0x23
  62:	0000                	unimp
  64:	120e                	slli	tp,tp,0x23
  66:	0000                	unimp
  68:	120e                	slli	tp,tp,0x23
  6a:	0000                	unimp
  6c:	120e                	slli	tp,tp,0x23
  6e:	0000                	unimp
  70:	120e                	slli	tp,tp,0x23
  72:	0000                	unimp
  74:	120e                	slli	tp,tp,0x23
  76:	0000                	unimp
  78:	120e                	slli	tp,tp,0x23
  7a:	0000                	unimp
  7c:	120e                	slli	tp,tp,0x23
  7e:	0000                	unimp
  80:	120e                	slli	tp,tp,0x23
  82:	0000                	unimp
  84:	120e                	slli	tp,tp,0x23
  86:	0000                	unimp
  88:	120e                	slli	tp,tp,0x23
  8a:	0000                	unimp
  8c:	120e                	slli	tp,tp,0x23
  8e:	0000                	unimp
  90:	120e                	slli	tp,tp,0x23
  92:	0000                	unimp
  94:	120e                	slli	tp,tp,0x23
  96:	0000                	unimp
  98:	120e                	slli	tp,tp,0x23
  9a:	0000                	unimp
  9c:	120e                	slli	tp,tp,0x23
  9e:	0000                	unimp
  a0:	120e                	slli	tp,tp,0x23
  a2:	0000                	unimp
  a4:	120e                	slli	tp,tp,0x23
  a6:	0000                	unimp
  a8:	120e                	slli	tp,tp,0x23
  aa:	0000                	unimp
  ac:	120e                	slli	tp,tp,0x23
  ae:	0000                	unimp
  b0:	120e                	slli	tp,tp,0x23
  b2:	0000                	unimp
  b4:	120e                	slli	tp,tp,0x23
  b6:	0000                	unimp
  b8:	120e                	slli	tp,tp,0x23
  ba:	0000                	unimp
  bc:	120e                	slli	tp,tp,0x23
  be:	0000                	unimp
  c0:	120e                	slli	tp,tp,0x23
  c2:	0000                	unimp
  c4:	120e                	slli	tp,tp,0x23
  c6:	0000                	unimp
  c8:	120e                	slli	tp,tp,0x23
  ca:	0000                	unimp
  cc:	120e                	slli	tp,tp,0x23
  ce:	0000                	unimp
  d0:	120e                	slli	tp,tp,0x23
  d2:	0000                	unimp
  d4:	120e                	slli	tp,tp,0x23
  d6:	0000                	unimp
  d8:	0eca                	slli	t4,t4,0x12
  da:	0000                	unimp
  dc:	120e                	slli	tp,tp,0x23
  de:	0000                	unimp
  e0:	120e                	slli	tp,tp,0x23
  e2:	0000                	unimp
  e4:	120e                	slli	tp,tp,0x23
  e6:	0000                	unimp
  e8:	120e                	slli	tp,tp,0x23
  ea:	0000                	unimp
  ec:	120e                	slli	tp,tp,0x23
  ee:	0000                	unimp
  f0:	120e                	slli	tp,tp,0x23
  f2:	0000                	unimp
  f4:	120e                	slli	tp,tp,0x23
  f6:	0000                	unimp
  f8:	120e                	slli	tp,tp,0x23
  fa:	0000                	unimp
  fc:	120e                	slli	tp,tp,0x23
	...

Disassembly of section .text:

00000100 <__riscv_save_12>:
     100:	7139                	addi	sp,sp,-64
     102:	4301                	li	t1,0
     104:	c66e                	sw	s11,12(sp)
     106:	a019                	j	10c <__riscv_save_10+0x4>

00000108 <__riscv_save_10>:
     108:	7139                	addi	sp,sp,-64
     10a:	5341                	li	t1,-16
     10c:	c86a                	sw	s10,16(sp)
     10e:	ca66                	sw	s9,20(sp)
     110:	cc62                	sw	s8,24(sp)
     112:	ce5e                	sw	s7,28(sp)
     114:	a019                	j	11a <__riscv_save_4+0x4>

00000116 <__riscv_save_4>:
     116:	7139                	addi	sp,sp,-64
     118:	5301                	li	t1,-32
     11a:	d05a                	sw	s6,32(sp)
     11c:	d256                	sw	s5,36(sp)
     11e:	d452                	sw	s4,40(sp)
     120:	d64e                	sw	s3,44(sp)
     122:	d84a                	sw	s2,48(sp)
     124:	da26                	sw	s1,52(sp)
     126:	dc22                	sw	s0,56(sp)
     128:	de06                	sw	ra,60(sp)
     12a:	40610133          	sub	sp,sp,t1
     12e:	8282                	jr	t0

00000130 <__riscv_save_0>:
     130:	1141                	addi	sp,sp,-16
     132:	c04a                	sw	s2,0(sp)
     134:	c226                	sw	s1,4(sp)
     136:	c422                	sw	s0,8(sp)
     138:	c606                	sw	ra,12(sp)
     13a:	8282                	jr	t0

0000013c <__riscv_restore_12>:
     13c:	4db2                	lw	s11,12(sp)
     13e:	0141                	addi	sp,sp,16

00000140 <__riscv_restore_10>:
     140:	4d02                	lw	s10,0(sp)
     142:	4c92                	lw	s9,4(sp)
     144:	4c22                	lw	s8,8(sp)
     146:	4bb2                	lw	s7,12(sp)
     148:	0141                	addi	sp,sp,16

0000014a <__riscv_restore_4>:
     14a:	4b02                	lw	s6,0(sp)
     14c:	4a92                	lw	s5,4(sp)
     14e:	4a22                	lw	s4,8(sp)
     150:	49b2                	lw	s3,12(sp)
     152:	0141                	addi	sp,sp,16

00000154 <__riscv_restore_0>:
     154:	4902                	lw	s2,0(sp)
     156:	4492                	lw	s1,4(sp)
     158:	4422                	lw	s0,8(sp)
     15a:	40b2                	lw	ra,12(sp)
     15c:	0141                	addi	sp,sp,16
     15e:	8082                	ret

00000160 <memset>:
     160:	433d                	li	t1,15
     162:	872a                	mv	a4,a0
     164:	02c37363          	bgeu	t1,a2,18a <memset+0x2a>
     168:	00f77793          	andi	a5,a4,15
     16c:	efbd                	bnez	a5,1ea <memset+0x8a>
     16e:	e5ad                	bnez	a1,1d8 <memset+0x78>
     170:	ff067693          	andi	a3,a2,-16
     174:	8a3d                	andi	a2,a2,15
     176:	96ba                	add	a3,a3,a4
     178:	c30c                	sw	a1,0(a4)
     17a:	c34c                	sw	a1,4(a4)
     17c:	c70c                	sw	a1,8(a4)
     17e:	c74c                	sw	a1,12(a4)
     180:	0741                	addi	a4,a4,16
     182:	fed76be3          	bltu	a4,a3,178 <memset+0x18>
     186:	e211                	bnez	a2,18a <memset+0x2a>
     188:	8082                	ret
     18a:	40c306b3          	sub	a3,t1,a2
     18e:	068a                	slli	a3,a3,0x2
     190:	00000297          	auipc	t0,0x0
     194:	9696                	add	a3,a3,t0
     196:	00a68067          	jr	10(a3)
     19a:	00b70723          	sb	a1,14(a4)
     19e:	00b706a3          	sb	a1,13(a4)
     1a2:	00b70623          	sb	a1,12(a4)
     1a6:	00b705a3          	sb	a1,11(a4)
     1aa:	00b70523          	sb	a1,10(a4)
     1ae:	00b704a3          	sb	a1,9(a4)
     1b2:	00b70423          	sb	a1,8(a4)
     1b6:	00b703a3          	sb	a1,7(a4)
     1ba:	00b70323          	sb	a1,6(a4)
     1be:	00b702a3          	sb	a1,5(a4)
     1c2:	00b70223          	sb	a1,4(a4)
     1c6:	00b701a3          	sb	a1,3(a4)
     1ca:	00b70123          	sb	a1,2(a4)
     1ce:	00b700a3          	sb	a1,1(a4)
     1d2:	00b70023          	sb	a1,0(a4)
     1d6:	8082                	ret
     1d8:	0ff5f593          	andi	a1,a1,255
     1dc:	00859693          	slli	a3,a1,0x8
     1e0:	8dd5                	or	a1,a1,a3
     1e2:	01059693          	slli	a3,a1,0x10
     1e6:	8dd5                	or	a1,a1,a3
     1e8:	b761                	j	170 <memset+0x10>
     1ea:	00279693          	slli	a3,a5,0x2
     1ee:	00000297          	auipc	t0,0x0
     1f2:	9696                	add	a3,a3,t0
     1f4:	8286                	mv	t0,ra
     1f6:	fa8680e7          	jalr	-88(a3)
     1fa:	8096                	mv	ra,t0
     1fc:	17c1                	addi	a5,a5,-16
     1fe:	8f1d                	sub	a4,a4,a5
     200:	963e                	add	a2,a2,a5
     202:	f8c374e3          	bgeu	t1,a2,18a <memset+0x2a>
     206:	b7a5                	j	16e <memset+0xe>

00000208 <HX711_Read_Unsafe>:
     208:	f0fff2ef          	jal	t0,116 <__riscv_save_4>
     20c:	400114b7          	lui	s1,0x40011
     210:	c0048513          	addi	a0,s1,-1024 # 40010c00 <_eusrstack+0x2000bc00>
     214:	40000593          	li	a1,1024
     218:	6985                	lui	s3,0x1
     21a:	19c010ef          	jal	ra,13b6 <GPIO_ResetBits>
     21e:	4961                	li	s2,24
     220:	4401                	li	s0,0
     222:	c0048493          	addi	s1,s1,-1024
     226:	80098993          	addi	s3,s3,-2048 # 800 <__stack_size>
     22a:	40000593          	li	a1,1024
     22e:	8526                	mv	a0,s1
     230:	172010ef          	jal	ra,13a2 <GPIO_SetBits>
     234:	4505                	li	a0,1
     236:	594010ef          	jal	ra,17ca <Delay_Us>
     23a:	40000593          	li	a1,1024
     23e:	8526                	mv	a0,s1
     240:	176010ef          	jal	ra,13b6 <GPIO_ResetBits>
     244:	85ce                	mv	a1,s3
     246:	8526                	mv	a0,s1
     248:	140010ef          	jal	ra,1388 <GPIO_ReadInputDataBit>
     24c:	4785                	li	a5,1
     24e:	0406                	slli	s0,s0,0x1
     250:	00f51363          	bne	a0,a5,256 <HX711_Read_Unsafe+0x4e>
     254:	0405                	addi	s0,s0,1
     256:	197d                	addi	s2,s2,-1
     258:	4505                	li	a0,1
     25a:	0ff97913          	andi	s2,s2,255
     25e:	56c010ef          	jal	ra,17ca <Delay_Us>
     262:	fc0914e3          	bnez	s2,22a <HX711_Read_Unsafe+0x22>
     266:	400114b7          	lui	s1,0x40011
     26a:	40000593          	li	a1,1024
     26e:	c0048513          	addi	a0,s1,-1024 # 40010c00 <_eusrstack+0x2000bc00>
     272:	130010ef          	jal	ra,13a2 <GPIO_SetBits>
     276:	4505                	li	a0,1
     278:	552010ef          	jal	ra,17ca <Delay_Us>
     27c:	40000593          	li	a1,1024
     280:	c0048513          	addi	a0,s1,-1024
     284:	132010ef          	jal	ra,13b6 <GPIO_ResetBits>
     288:	4505                	li	a0,1
     28a:	540010ef          	jal	ra,17ca <Delay_Us>
     28e:	00841793          	slli	a5,s0,0x8
     292:	0007d663          	bgez	a5,29e <HX711_Read_Unsafe+0x96>
     296:	ff000537          	lui	a0,0xff000
     29a:	8d41                	or	a0,a0,s0
     29c:	b57d                	j	14a <__riscv_restore_4>
     29e:	00841513          	slli	a0,s0,0x8
     2a2:	8121                	srli	a0,a0,0x8
     2a4:	bfe5                	j	29c <HX711_Read_Unsafe+0x94>

000002a6 <HX711_Init>:
     2a6:	e8bff2ef          	jal	t0,130 <__riscv_save_0>
     2aa:	1141                	addi	sp,sp,-16
     2ac:	4585                	li	a1,1
     2ae:	4521                	li	a0,8
     2b0:	c202                	sw	zero,4(sp)
     2b2:	c402                	sw	zero,8(sp)
     2b4:	c602                	sw	zero,12(sp)
     2b6:	23a010ef          	jal	ra,14f0 <RCC_APB2PeriphClockCmd>
     2ba:	40000793          	li	a5,1024
     2be:	40011437          	lui	s0,0x40011
     2c2:	827c                	sh	a5,4(sp)
     2c4:	47c1                	li	a5,16
     2c6:	c63e                	sw	a5,12(sp)
     2c8:	004c                	addi	a1,sp,4
     2ca:	478d                	li	a5,3
     2cc:	c0040513          	addi	a0,s0,-1024 # 40010c00 <_eusrstack+0x2000bc00>
     2d0:	c43e                	sw	a5,8(sp)
     2d2:	7c5000ef          	jal	ra,1296 <GPIO_Init>
     2d6:	6785                	lui	a5,0x1
     2d8:	80078793          	addi	a5,a5,-2048 # 800 <__stack_size>
     2dc:	827c                	sh	a5,4(sp)
     2de:	004c                	addi	a1,sp,4
     2e0:	04800793          	li	a5,72
     2e4:	c0040513          	addi	a0,s0,-1024
     2e8:	c63e                	sw	a5,12(sp)
     2ea:	7ad000ef          	jal	ra,1296 <GPIO_Init>
     2ee:	40000593          	li	a1,1024
     2f2:	c0040513          	addi	a0,s0,-1024
     2f6:	0c0010ef          	jal	ra,13b6 <GPIO_ResetBits>
     2fa:	0141                	addi	sp,sp,16
     2fc:	bda1                	j	154 <__riscv_restore_0>

000002fe <HX711_Is_Ready>:
     2fe:	e33ff2ef          	jal	t0,130 <__riscv_save_0>
     302:	6585                	lui	a1,0x1
     304:	40011537          	lui	a0,0x40011
     308:	80058593          	addi	a1,a1,-2048 # 800 <__stack_size>
     30c:	c0050513          	addi	a0,a0,-1024 # 40010c00 <_eusrstack+0x2000bc00>
     310:	078010ef          	jal	ra,1388 <GPIO_ReadInputDataBit>
     314:	00153513          	seqz	a0,a0
     318:	bd35                	j	154 <__riscv_restore_0>

0000031a <HX711_WaitReady>:
     31a:	e17ff2ef          	jal	t0,130 <__riscv_save_0>
     31e:	842a                	mv	s0,a0
     320:	e019                	bnez	s0,326 <HX711_WaitReady+0xc>
     322:	4501                	li	a0,0
     324:	bd05                	j	154 <__riscv_restore_0>
     326:	3fe1                	jal	2fe <HX711_Is_Ready>
     328:	147d                	addi	s0,s0,-1
     32a:	e509                	bnez	a0,334 <HX711_WaitReady+0x1a>
     32c:	4505                	li	a0,1
     32e:	4d2010ef          	jal	ra,1800 <Delay_Ms>
     332:	b7fd                	j	320 <HX711_WaitReady+0x6>
     334:	4505                	li	a0,1
     336:	b7fd                	j	324 <HX711_WaitReady+0xa>

00000338 <HX711_Read>:
     338:	df9ff2ef          	jal	t0,130 <__riscv_save_0>
     33c:	12c00513          	li	a0,300
     340:	3fe9                	jal	31a <HX711_WaitReady>
     342:	e911                	bnez	a0,356 <HX711_Read+0x1e>
     344:	00003537          	lui	a0,0x3
     348:	71c50513          	addi	a0,a0,1820 # 371c <_read+0xc>
     34c:	318020ef          	jal	ra,2664 <puts>
     350:	8201a503          	lw	a0,-2016(gp) # 200000a0 <_edata>
     354:	b501                	j	154 <__riscv_restore_0>
     356:	3d4d                	jal	208 <HX711_Read_Unsafe>
     358:	bff5                	j	354 <HX711_Read+0x1c>

0000035a <HX711_Tare>:
     35a:	dbdff2ef          	jal	t0,116 <__riscv_save_4>
     35e:	4931                	li	s2,12
     360:	4401                	li	s0,0
     362:	4981                	li	s3,0
     364:	4481                	li	s1,0
     366:	4a21                	li	s4,8
     368:	03200513          	li	a0,50
     36c:	377d                	jal	31a <HX711_WaitReady>
     36e:	cd09                	beqz	a0,388 <HX711_Tare+0x2e>
     370:	3d61                	jal	208 <HX711_Read_Unsafe>
     372:	41f55593          	srai	a1,a0,0x1f
     376:	954e                	add	a0,a0,s3
     378:	013537b3          	sltu	a5,a0,s3
     37c:	94ae                	add	s1,s1,a1
     37e:	0405                	addi	s0,s0,1
     380:	89aa                	mv	s3,a0
     382:	94be                	add	s1,s1,a5
     384:	0ff47413          	andi	s0,s0,255
     388:	197d                	addi	s2,s2,-1
     38a:	4529                	li	a0,10
     38c:	0ff97913          	andi	s2,s2,255
     390:	470010ef          	jal	ra,1800 <Delay_Ms>
     394:	02090663          	beqz	s2,3c0 <HX711_Tare+0x66>
     398:	fd4418e3          	bne	s0,s4,368 <HX711_Tare+0xe>
     39c:	8622                	mv	a2,s0
     39e:	4681                	li	a3,0
     3a0:	854e                	mv	a0,s3
     3a2:	85a6                	mv	a1,s1
     3a4:	550010ef          	jal	ra,18f4 <__divdi3>
     3a8:	85aa                	mv	a1,a0
     3aa:	82a1a023          	sw	a0,-2016(gp) # 200000a0 <_edata>
     3ae:	00003537          	lui	a0,0x3
     3b2:	8622                	mv	a2,s0
     3b4:	74850513          	addi	a0,a0,1864 # 3748 <_read+0x38>
     3b8:	198020ef          	jal	ra,2550 <iprintf>
     3bc:	4405                	li	s0,1
     3be:	a801                	j	3ce <HX711_Tare+0x74>
     3c0:	fc71                	bnez	s0,39c <HX711_Tare+0x42>
     3c2:	00003537          	lui	a0,0x3
     3c6:	73450513          	addi	a0,a0,1844 # 3734 <_read+0x24>
     3ca:	29a020ef          	jal	ra,2664 <puts>
     3ce:	8522                	mv	a0,s0
     3d0:	bbad                	j	14a <__riscv_restore_4>

000003d2 <HX711_Get_Weight>:
     3d2:	d5fff2ef          	jal	t0,130 <__riscv_save_0>
     3d6:	378d                	jal	338 <HX711_Read>
     3d8:	8201a783          	lw	a5,-2016(gp) # 200000a0 <_edata>
     3dc:	40a78533          	sub	a0,a5,a0
     3e0:	78b010ef          	jal	ra,236a <__floatsisf>
     3e4:	200007b7          	lui	a5,0x20000
     3e8:	0807a583          	lw	a1,128(a5) # 20000080 <HX711_Scale>
     3ec:	46f010ef          	jal	ra,205a <__divsf3>
     3f0:	719010ef          	jal	ra,2308 <__fixsfsi>
     3f4:	b385                	j	154 <__riscv_restore_0>

000003f6 <PushRod_Init>:
     3f6:	d3bff2ef          	jal	t0,130 <__riscv_save_0>
     3fa:	1141                	addi	sp,sp,-16
     3fc:	4585                	li	a1,1
     3fe:	4511                	li	a0,4
     400:	c202                	sw	zero,4(sp)
     402:	c402                	sw	zero,8(sp)
     404:	c602                	sw	zero,12(sp)
     406:	0ea010ef          	jal	ra,14f0 <RCC_APB2PeriphClockCmd>
     40a:	03000793          	li	a5,48
     40e:	40011437          	lui	s0,0x40011
     412:	827c                	sh	a5,4(sp)
     414:	47c1                	li	a5,16
     416:	c63e                	sw	a5,12(sp)
     418:	004c                	addi	a1,sp,4
     41a:	478d                	li	a5,3
     41c:	80040513          	addi	a0,s0,-2048 # 40010800 <_eusrstack+0x2000b800>
     420:	c43e                	sw	a5,8(sp)
     422:	675000ef          	jal	ra,1296 <GPIO_Init>
     426:	03000593          	li	a1,48
     42a:	80040513          	addi	a0,s0,-2048
     42e:	789000ef          	jal	ra,13b6 <GPIO_ResetBits>
     432:	0141                	addi	sp,sp,16
     434:	b305                	j	154 <__riscv_restore_0>

00000436 <PushRod_Extend>:
     436:	cfbff2ef          	jal	t0,130 <__riscv_save_0>
     43a:	00003537          	lui	a0,0x3
     43e:	77450513          	addi	a0,a0,1908 # 3774 <_read+0x64>
     442:	222020ef          	jal	ra,2664 <puts>
     446:	40011437          	lui	s0,0x40011
     44a:	80040513          	addi	a0,s0,-2048 # 40010800 <_eusrstack+0x2000b800>
     44e:	45c1                	li	a1,16
     450:	753000ef          	jal	ra,13a2 <GPIO_SetBits>
     454:	02000593          	li	a1,32
     458:	80040513          	addi	a0,s0,-2048
     45c:	75b000ef          	jal	ra,13b6 <GPIO_ResetBits>
     460:	b9d5                	j	154 <__riscv_restore_0>

00000462 <PushRod_Retract>:
     462:	ccfff2ef          	jal	t0,130 <__riscv_save_0>
     466:	00003537          	lui	a0,0x3
     46a:	78c50513          	addi	a0,a0,1932 # 378c <_read+0x7c>
     46e:	1f6020ef          	jal	ra,2664 <puts>
     472:	40011437          	lui	s0,0x40011
     476:	80040513          	addi	a0,s0,-2048 # 40010800 <_eusrstack+0x2000b800>
     47a:	45c1                	li	a1,16
     47c:	73b000ef          	jal	ra,13b6 <GPIO_ResetBits>
     480:	02000593          	li	a1,32
     484:	80040513          	addi	a0,s0,-2048
     488:	71b000ef          	jal	ra,13a2 <GPIO_SetBits>
     48c:	b1e1                	j	154 <__riscv_restore_0>

0000048e <PushRod_Stop>:
     48e:	ca3ff2ef          	jal	t0,130 <__riscv_save_0>
     492:	00003537          	lui	a0,0x3
     496:	7a450513          	addi	a0,a0,1956 # 37a4 <_read+0x94>
     49a:	1ca020ef          	jal	ra,2664 <puts>
     49e:	40011537          	lui	a0,0x40011
     4a2:	03000593          	li	a1,48
     4a6:	80050513          	addi	a0,a0,-2048 # 40010800 <_eusrstack+0x2000b800>
     4aa:	70d000ef          	jal	ra,13b6 <GPIO_ResetBits>
     4ae:	b15d                	j	154 <__riscv_restore_0>

000004b0 <TMC2209_Enable>:
     4b0:	c81ff2ef          	jal	t0,130 <__riscv_save_0>
     4b4:	40011537          	lui	a0,0x40011
     4b8:	4585                	li	a1,1
     4ba:	80050513          	addi	a0,a0,-2048 # 40010800 <_eusrstack+0x2000b800>
     4be:	6f9000ef          	jal	ra,13b6 <GPIO_ResetBits>
     4c2:	b949                	j	154 <__riscv_restore_0>

000004c4 <TMC2209_Disable>:
     4c4:	c6dff2ef          	jal	t0,130 <__riscv_save_0>
     4c8:	40011537          	lui	a0,0x40011
     4cc:	4585                	li	a1,1
     4ce:	80050513          	addi	a0,a0,-2048 # 40010800 <_eusrstack+0x2000b800>
     4d2:	6d1000ef          	jal	ra,13a2 <GPIO_SetBits>
     4d6:	b9bd                	j	154 <__riscv_restore_0>

000004d8 <TMC2209_Init>:
     4d8:	c59ff2ef          	jal	t0,130 <__riscv_save_0>
     4dc:	1141                	addi	sp,sp,-16
     4de:	4585                	li	a1,1
     4e0:	4511                	li	a0,4
     4e2:	c202                	sw	zero,4(sp)
     4e4:	c402                	sw	zero,8(sp)
     4e6:	c602                	sw	zero,12(sp)
     4e8:	008010ef          	jal	ra,14f0 <RCC_APB2PeriphClockCmd>
     4ec:	479d                	li	a5,7
     4ee:	40011437          	lui	s0,0x40011
     4f2:	827c                	sh	a5,4(sp)
     4f4:	47c1                	li	a5,16
     4f6:	004c                	addi	a1,sp,4
     4f8:	80040513          	addi	a0,s0,-2048 # 40010800 <_eusrstack+0x2000b800>
     4fc:	c63e                	sw	a5,12(sp)
     4fe:	478d                	li	a5,3
     500:	c43e                	sw	a5,8(sp)
     502:	595000ef          	jal	ra,1296 <GPIO_Init>
     506:	3f7d                	jal	4c4 <TMC2209_Disable>
     508:	80040513          	addi	a0,s0,-2048
     50c:	4589                	li	a1,2
     50e:	6a9000ef          	jal	ra,13b6 <GPIO_ResetBits>
     512:	4591                	li	a1,4
     514:	80040513          	addi	a0,s0,-2048
     518:	69f000ef          	jal	ra,13b6 <GPIO_ResetBits>
     51c:	0141                	addi	sp,sp,16
     51e:	b91d                	j	154 <__riscv_restore_0>

00000520 <TMC2209_SetDir>:
     520:	c11ff2ef          	jal	t0,130 <__riscv_save_0>
     524:	4591                	li	a1,4
     526:	e901                	bnez	a0,536 <TMC2209_SetDir+0x16>
     528:	40011537          	lui	a0,0x40011
     52c:	80050513          	addi	a0,a0,-2048 # 40010800 <_eusrstack+0x2000b800>
     530:	673000ef          	jal	ra,13a2 <GPIO_SetBits>
     534:	b105                	j	154 <__riscv_restore_0>
     536:	40011537          	lui	a0,0x40011
     53a:	80050513          	addi	a0,a0,-2048 # 40010800 <_eusrstack+0x2000b800>
     53e:	679000ef          	jal	ra,13b6 <GPIO_ResetBits>
     542:	bfcd                	j	534 <TMC2209_SetDir+0x14>

00000544 <build_flags>:
     544:	8241c783          	lbu	a5,-2012(gp) # 200000a4 <s_action_busy>
     548:	4509                	li	a0,2
     54a:	e789                	bnez	a5,554 <build_flags+0x10>
     54c:	8301c503          	lbu	a0,-2000(gp) # 200000b0 <s_last_error>
     550:	00153513          	seqz	a0,a0
     554:	8381c783          	lbu	a5,-1992(gp) # 200000b8 <s_locked>
     558:	c399                	beqz	a5,55e <build_flags+0x1a>
     55a:	08056513          	ori	a0,a0,128
     55e:	8341a703          	lw	a4,-1996(gp) # 200000b4 <s_last_weight_g>
     562:	47cd                	li	a5,19
     564:	00e7d463          	bge	a5,a4,56c <build_flags+0x28>
     568:	04056513          	ori	a0,a0,64
     56c:	8082                	ret

0000056e <send_idle_heartbeat>:
     56e:	bc3ff2ef          	jal	t0,130 <__riscv_save_0>
     572:	8301c703          	lbu	a4,-2000(gp) # 200000b0 <s_last_error>
     576:	8341a803          	lw	a6,-1996(gp) # 200000b4 <s_last_weight_g>
     57a:	1141                	addi	sp,sp,-16
     57c:	80418793          	addi	a5,gp,-2044 # 20000084 <s_current_stage>
     580:	e30d                	bnez	a4,5a2 <send_idle_heartbeat+0x34>
     582:	4709                	li	a4,2
     584:	a398                	sb	a4,0(a5)
     586:	c442                	sw	a6,8(sp)
     588:	3f75                	jal	544 <build_flags>
     58a:	4822                	lw	a6,8(sp)
     58c:	87aa                	mv	a5,a0
     58e:	4701                	li	a4,0
     590:	4689                	li	a3,2
     592:	4601                	li	a2,0
     594:	4581                	li	a1,0
     596:	02000513          	li	a0,32
     59a:	0e7000ef          	jal	ra,e80 <ESP32_Comm_SendProtoState>
     59e:	0141                	addi	sp,sp,16
     5a0:	be55                	j	154 <__riscv_restore_0>
     5a2:	46b9                	li	a3,14
     5a4:	a394                	sb	a3,0(a5)
     5a6:	c642                	sw	a6,12(sp)
     5a8:	c43a                	sw	a4,8(sp)
     5aa:	3f69                	jal	544 <build_flags>
     5ac:	4832                	lw	a6,12(sp)
     5ae:	87aa                	mv	a5,a0
     5b0:	4722                	lw	a4,8(sp)
     5b2:	46b9                	li	a3,14
     5b4:	bff9                	j	592 <send_idle_heartbeat+0x24>

000005b6 <ensure_hx711_ready>:
     5b6:	b7bff2ef          	jal	t0,130 <__riscv_save_0>
     5ba:	82b18413          	addi	s0,gp,-2005 # 200000ab <s_hx711_ready>
     5be:	201c                	lbu	a5,0(s0)
     5c0:	4505                	li	a0,1
     5c2:	e791                	bnez	a5,5ce <ensure_hx711_ready+0x18>
     5c4:	3b59                	jal	35a <HX711_Tare>
     5c6:	c501                	beqz	a0,5ce <ensure_hx711_ready+0x18>
     5c8:	4785                	li	a5,1
     5ca:	a01c                	sb	a5,0(s0)
     5cc:	4505                	li	a0,1
     5ce:	b659                	j	154 <__riscv_restore_0>

000005d0 <get_weight_avg.constprop.5>:
     5d0:	b61ff2ef          	jal	t0,130 <__riscv_save_0>
     5d4:	448d                	li	s1,3
     5d6:	4901                	li	s2,0
     5d8:	4401                	li	s0,0
     5da:	3be5                	jal	3d2 <HX711_Get_Weight>
     5dc:	41f55593          	srai	a1,a0,0x1f
     5e0:	14fd                	addi	s1,s1,-1
     5e2:	954a                	add	a0,a0,s2
     5e4:	012537b3          	sltu	a5,a0,s2
     5e8:	942e                	add	s0,s0,a1
     5ea:	892a                	mv	s2,a0
     5ec:	0ff4f493          	andi	s1,s1,255
     5f0:	4551                	li	a0,20
     5f2:	943e                	add	s0,s0,a5
     5f4:	20c010ef          	jal	ra,1800 <Delay_Ms>
     5f8:	f0ed                	bnez	s1,5da <get_weight_avg.constprop.5+0xa>
     5fa:	460d                	li	a2,3
     5fc:	4681                	li	a3,0
     5fe:	854a                	mv	a0,s2
     600:	85a2                	mv	a1,s0
     602:	2f2010ef          	jal	ra,18f4 <__divdi3>
     606:	82a1aa23          	sw	a0,-1996(gp) # 200000b4 <s_last_weight_g>
     60a:	b6a9                	j	154 <__riscv_restore_0>

0000060c <send_proto_state_ctx.constprop.7>:
     60c:	b25ff2ef          	jal	t0,130 <__riscv_save_0>
     610:	1141                	addi	sp,sp,-16
     612:	86ae                	mv	a3,a1
     614:	8732                	mv	a4,a2
     616:	c11d                	beqz	a0,63c <send_proto_state_ctx.constprop.7+0x30>
     618:	2100                	lbu	s0,0(a0)
     61a:	3104                	lbu	s1,1(a0)
     61c:	c63a                	sw	a4,12(sp)
     61e:	c436                	sw	a3,8(sp)
     620:	3715                	jal	544 <build_flags>
     622:	8341a803          	lw	a6,-1996(gp) # 200000b4 <s_last_weight_g>
     626:	4732                	lw	a4,12(sp)
     628:	46a2                	lw	a3,8(sp)
     62a:	87aa                	mv	a5,a0
     62c:	8626                	mv	a2,s1
     62e:	85a2                	mv	a1,s0
     630:	02000513          	li	a0,32
     634:	04d000ef          	jal	ra,e80 <ESP32_Comm_SendProtoState>
     638:	0141                	addi	sp,sp,16
     63a:	be29                	j	154 <__riscv_restore_0>
     63c:	4401                	li	s0,0
     63e:	4481                	li	s1,0
     640:	bff1                	j	61c <send_proto_state_ctx.constprop.7+0x10>

00000642 <send_fault>:
     642:	aefff2ef          	jal	t0,130 <__riscv_save_0>
     646:	82a18823          	sb	a0,-2000(gp) # 200000b0 <s_last_error>
     64a:	4739                	li	a4,14
     64c:	80e18223          	sb	a4,-2044(gp) # 20000084 <s_current_stage>
     650:	82018223          	sb	zero,-2012(gp) # 200000a4 <s_action_busy>
     654:	82a1c783          	lbu	a5,-2006(gp) # 200000aa <s_action_rsp_valid>
     658:	862a                	mv	a2,a0
     65a:	c791                	beqz	a5,666 <send_fault+0x24>
     65c:	82818513          	addi	a0,gp,-2008 # 200000a8 <s_action_rsp>
     660:	45b9                	li	a1,14
     662:	376d                	jal	60c <send_proto_state_ctx.constprop.7>
     664:	bcc5                	j	154 <__riscv_restore_0>
     666:	83c18513          	addi	a0,gp,-1988 # 200000bc <s_rsp>
     66a:	bfdd                	j	660 <send_fault+0x1e>

0000066c <send_stage.constprop.6>:
     66c:	ac5ff2ef          	jal	t0,130 <__riscv_save_0>
     670:	80a18223          	sb	a0,-2044(gp) # 20000084 <s_current_stage>
     674:	ff450793          	addi	a5,a0,-12
     678:	0ff7f793          	andi	a5,a5,255
     67c:	4705                	li	a4,1
     67e:	85aa                	mv	a1,a0
     680:	00f76e63          	bltu	a4,a5,69c <send_stage.constprop.6+0x30>
     684:	82e18c23          	sb	a4,-1992(gp) # 200000b8 <s_locked>
     688:	82018223          	sb	zero,-2012(gp) # 200000a4 <s_action_busy>
     68c:	82a1c783          	lbu	a5,-2006(gp) # 200000aa <s_action_rsp_valid>
     690:	c385                	beqz	a5,6b0 <send_stage.constprop.6+0x44>
     692:	82818513          	addi	a0,gp,-2008 # 200000a8 <s_action_rsp>
     696:	4601                	li	a2,0
     698:	3f95                	jal	60c <send_proto_state_ctx.constprop.7>
     69a:	bc6d                	j	154 <__riscv_restore_0>
     69c:	fff50693          	addi	a3,a0,-1
     6a0:	0ff6f693          	andi	a3,a3,255
     6a4:	fed772e3          	bgeu	a4,a3,688 <send_stage.constprop.6+0x1c>
     6a8:	4709                	li	a4,2
     6aa:	fee791e3          	bne	a5,a4,68c <send_stage.constprop.6+0x20>
     6ae:	bfe9                	j	688 <send_stage.constprop.6+0x1c>
     6b0:	83c18513          	addi	a0,gp,-1988 # 200000bc <s_rsp>
     6b4:	b7cd                	j	696 <send_stage.constprop.6+0x2a>

000006b6 <pump_runtime_packets>:
     6b6:	a61ff2ef          	jal	t0,116 <__riscv_save_4>
     6ba:	7139                	addi	sp,sp,-64
     6bc:	44c1                	li	s1,16
     6be:	0068                	addi	a0,sp,12
     6c0:	5b4000ef          	jal	ra,c74 <ESP32_Comm_ReadPacket>
     6c4:	c535                	beqz	a0,730 <pump_runtime_packets+0x7a>
     6c6:	861c                	lbu	a5,12(sp)
     6c8:	fe979be3          	bne	a5,s1,6be <pump_runtime_packets+0x8>
     6cc:	8688                	lbu	a0,13(sp)
     6ce:	47a1                	li	a5,8
     6d0:	870c                	lbu	a1,14(sp)
     6d2:	06f50263          	beq	a0,a5,736 <pump_runtime_packets+0x80>
     6d6:	47a5                	li	a5,9
     6d8:	02f50363          	beq	a0,a5,6fe <pump_runtime_packets+0x48>
     6dc:	479d                	li	a5,7
     6de:	06f51f63          	bne	a0,a5,75c <pump_runtime_packets+0xa6>
     6e2:	451d                	li	a0,7
     6e4:	52e000ef          	jal	ra,c12 <ESP32_Comm_SendProtoAck>
     6e8:	869c                	lbu	a5,13(sp)
     6ea:	8301c603          	lbu	a2,-2000(gp) # 200000b0 <s_last_error>
     6ee:	8041c583          	lbu	a1,-2044(gp) # 20000084 <s_current_stage>
     6f2:	825c                	sb	a5,4(sp)
     6f4:	871c                	lbu	a5,14(sp)
     6f6:	0048                	addi	a0,sp,4
     6f8:	82dc                	sb	a5,5(sp)
     6fa:	3f09                	jal	60c <send_proto_state_ctx.constprop.7>
     6fc:	b7c9                	j	6be <pump_runtime_packets+0x8>
     6fe:	4525                	li	a0,9
     700:	512000ef          	jal	ra,c12 <ESP32_Comm_SendProtoAck>
     704:	3369                	jal	48e <PushRod_Stop>
     706:	3b7d                	jal	4c4 <TMC2209_Disable>
     708:	82018223          	sb	zero,-2012(gp) # 200000a4 <s_action_busy>
     70c:	82018523          	sb	zero,-2006(gp) # 200000aa <s_action_rsp_valid>
     710:	82018823          	sb	zero,-2000(gp) # 200000b0 <s_last_error>
     714:	82018c23          	sb	zero,-1992(gp) # 200000b8 <s_locked>
     718:	4705                	li	a4,1
     71a:	80e18223          	sb	a4,-2044(gp) # 20000084 <s_current_stage>
     71e:	869c                	lbu	a5,13(sp)
     720:	850a                	mv	a0,sp
     722:	4601                	li	a2,0
     724:	805c                	sb	a5,0(sp)
     726:	871c                	lbu	a5,14(sp)
     728:	4585                	li	a1,1
     72a:	80dc                	sb	a5,1(sp)
     72c:	35c5                	jal	60c <send_proto_state_ctx.constprop.7>
     72e:	4505                	li	a0,1
     730:	6121                	addi	sp,sp,64
     732:	a19ff06f          	j	14a <__riscv_restore_4>
     736:	4521                	li	a0,8
     738:	29e9                	jal	c12 <ESP32_Comm_SendProtoAck>
     73a:	3db5                	jal	5b6 <ensure_hx711_ready>
     73c:	e501                	bnez	a0,744 <pump_runtime_packets+0x8e>
     73e:	4515                	li	a0,5
     740:	3709                	jal	642 <send_fault>
     742:	bfb5                	j	6be <pump_runtime_packets+0x8>
     744:	3571                	jal	5d0 <get_weight_avg.constprop.5>
     746:	869c                	lbu	a5,13(sp)
     748:	82a1aa23          	sw	a0,-1996(gp) # 200000b4 <s_last_weight_g>
     74c:	4601                	li	a2,0
     74e:	845c                	sb	a5,8(sp)
     750:	871c                	lbu	a5,14(sp)
     752:	8041c583          	lbu	a1,-2044(gp) # 20000084 <s_current_stage>
     756:	0028                	addi	a0,sp,8
     758:	84dc                	sb	a5,9(sp)
     75a:	b745                	j	6fa <pump_runtime_packets+0x44>
     75c:	461d                	li	a2,7
     75e:	4e2000ef          	jal	ra,c40 <ESP32_Comm_SendProtoNack>
     762:	bfb1                	j	6be <pump_runtime_packets+0x8>

00000764 <delay_ms_with_abort>:
     764:	9b3ff2ef          	jal	t0,116 <__riscv_save_4>
     768:	89aa                	mv	s3,a0
     76a:	4401                	li	s0,0
     76c:	4a25                	li	s4,9
     76e:	37a1                	jal	6b6 <pump_runtime_packets>
     770:	892a                	mv	s2,a0
     772:	ed19                	bnez	a0,790 <delay_ms_with_abort+0x2c>
     774:	408984b3          	sub	s1,s3,s0
     778:	009a7363          	bgeu	s4,s1,77e <delay_ms_with_abort+0x1a>
     77c:	44a9                	li	s1,10
     77e:	8526                	mv	a0,s1
     780:	9426                	add	s0,s0,s1
     782:	07e010ef          	jal	ra,1800 <Delay_Ms>
     786:	ff3464e3          	bltu	s0,s3,76e <delay_ms_with_abort+0xa>
     78a:	854a                	mv	a0,s2
     78c:	9bfff06f          	j	14a <__riscv_restore_4>
     790:	4905                	li	s2,1
     792:	bfe5                	j	78a <delay_ms_with_abort+0x26>

00000794 <stepper_move_interruptible.constprop.4>:
     794:	983ff2ef          	jal	t0,116 <__riscv_save_4>
     798:	1141                	addi	sp,sp,-16
     79a:	c62a                	sw	a0,12(sp)
     79c:	3b11                	jal	4b0 <TMC2209_Enable>
     79e:	4532                	lw	a0,12(sp)
     7a0:	400114b7          	lui	s1,0x40011
     7a4:	6949                	lui	s2,0x12
     7a6:	3bad                	jal	520 <TMC2209_SetDir>
     7a8:	4401                	li	s0,0
     7aa:	80048493          	addi	s1,s1,-2048 # 40010800 <_eusrstack+0x2000b800>
     7ae:	0c800993          	li	s3,200
     7b2:	4f890913          	addi	s2,s2,1272 # 124f8 <_data_lma+0xea4c>
     7b6:	4589                	li	a1,2
     7b8:	8526                	mv	a0,s1
     7ba:	3e9000ef          	jal	ra,13a2 <GPIO_SetBits>
     7be:	06400513          	li	a0,100
     7c2:	008010ef          	jal	ra,17ca <Delay_Us>
     7c6:	4589                	li	a1,2
     7c8:	8526                	mv	a0,s1
     7ca:	3ed000ef          	jal	ra,13b6 <GPIO_ResetBits>
     7ce:	06400513          	li	a0,100
     7d2:	7f9000ef          	jal	ra,17ca <Delay_Us>
     7d6:	033477b3          	remu	a5,s0,s3
     7da:	eb81                	bnez	a5,7ea <stepper_move_interruptible.constprop.4+0x56>
     7dc:	3de9                	jal	6b6 <pump_runtime_packets>
     7de:	c511                	beqz	a0,7ea <stepper_move_interruptible.constprop.4+0x56>
     7e0:	31d5                	jal	4c4 <TMC2209_Disable>
     7e2:	4505                	li	a0,1
     7e4:	0141                	addi	sp,sp,16
     7e6:	965ff06f          	j	14a <__riscv_restore_4>
     7ea:	0405                	addi	s0,s0,1
     7ec:	fd2415e3          	bne	s0,s2,7b6 <stepper_move_interruptible.constprop.4+0x22>
     7f0:	39d1                	jal	4c4 <TMC2209_Disable>
     7f2:	4501                	li	a0,0
     7f4:	bfc5                	j	7e4 <stepper_move_interruptible.constprop.4+0x50>

000007f6 <close_to_safe_locked>:
     7f6:	93bff2ef          	jal	t0,130 <__riscv_save_0>
     7fa:	84aa                	mv	s1,a0
     7fc:	4525                	li	a0,9
     7fe:	35bd                	jal	66c <send_stage.constprop.6>
     800:	318d                	jal	462 <PushRod_Retract>
     802:	6505                	lui	a0,0x1
     804:	a2850513          	addi	a0,a0,-1496 # a28 <CH32_App_RunOnce+0x19c>
     808:	3fb1                	jal	764 <delay_ms_with_abort>
     80a:	c511                	beqz	a0,816 <__stack_size+0x16>
     80c:	3149                	jal	48e <PushRod_Stop>
     80e:	4401                	li	s0,0
     810:	8522                	mv	a0,s0
     812:	943ff06f          	j	154 <__riscv_restore_0>
     816:	842a                	mv	s0,a0
     818:	399d                	jal	48e <PushRod_Stop>
     81a:	4529                	li	a0,10
     81c:	3d81                	jal	66c <send_stage.constprop.6>
     81e:	452d                	li	a0,11
     820:	35b1                	jal	66c <send_stage.constprop.6>
     822:	4505                	li	a0,1
     824:	3f85                	jal	794 <stepper_move_interruptible.constprop.4>
     826:	f56d                	bnez	a0,810 <__stack_size+0x10>
     828:	c489                	beqz	s1,832 <__stack_size+0x32>
     82a:	4531                	li	a0,12
     82c:	3581                	jal	66c <send_stage.constprop.6>
     82e:	8426                	mv	s0,s1
     830:	b7c5                	j	810 <__stack_size+0x10>
     832:	4731                	li	a4,12
     834:	80e18223          	sb	a4,-2044(gp) # 20000084 <s_current_stage>
     838:	4705                	li	a4,1
     83a:	82e18c23          	sb	a4,-1992(gp) # 200000b8 <s_locked>
     83e:	4405                	li	s0,1
     840:	bfc1                	j	810 <__stack_size+0x10>

00000842 <CH32_App_Init>:
     842:	8efff2ef          	jal	t0,130 <__riscv_save_0>
     846:	246d                	jal	af0 <ESP32_Comm_Init>
     848:	3941                	jal	4d8 <TMC2209_Init>
     84a:	3675                	jal	3f6 <PushRod_Init>
     84c:	a5bff0ef          	jal	ra,2a6 <HX711_Init>
     850:	76c000ef          	jal	ra,fbc <InnerDoor_Init>
     854:	392d                	jal	48e <PushRod_Stop>
     856:	31bd                	jal	4c4 <TMC2209_Disable>
     858:	74a000ef          	jal	ra,fa2 <InnerDoor_Close>
     85c:	820185a3          	sb	zero,-2005(gp) # 200000ab <s_hx711_ready>
     860:	4709                	li	a4,2
     862:	82018223          	sb	zero,-2012(gp) # 200000a4 <s_action_busy>
     866:	80e18223          	sb	a4,-2044(gp) # 20000084 <s_current_stage>
     86a:	82018823          	sb	zero,-2000(gp) # 200000b0 <s_last_error>
     86e:	82018c23          	sb	zero,-1992(gp) # 200000b8 <s_locked>
     872:	8201aa23          	sw	zero,-1996(gp) # 200000b4 <s_last_weight_g>
     876:	8201a623          	sw	zero,-2004(gp) # 200000ac <s_idle_ms>
     87a:	82019e23          	sh	zero,-1988(gp) # 200000bc <s_rsp>
     87e:	82019423          	sh	zero,-2008(gp) # 200000a8 <s_action_rsp>
     882:	82018523          	sb	zero,-2006(gp) # 200000aa <s_action_rsp_valid>
     886:	31e5                	jal	56e <send_idle_heartbeat>
     888:	8cdff06f          	j	154 <__riscv_restore_0>

0000088c <CH32_App_RunOnce>:
     88c:	87dff2ef          	jal	t0,108 <__riscv_save_10>
     890:	7139                	addi	sp,sp,-64
     892:	0068                	addi	a0,sp,12
     894:	26c5                	jal	c74 <ESP32_Comm_ReadPacket>
     896:	82c18413          	addi	s0,gp,-2004 # 200000ac <s_idle_ms>
     89a:	1a050363          	beqz	a0,a40 <CH32_App_RunOnce+0x1b4>
     89e:	8688                	lbu	a0,13(sp)
     8a0:	870c                	lbu	a1,14(sp)
     8a2:	00042023          	sw	zero,0(s0)
     8a6:	8618                	lbu	a4,12(sp)
     8a8:	83c18793          	addi	a5,gp,-1988 # 200000bc <s_rsp>
     8ac:	a388                	sb	a0,0(a5)
     8ae:	b38c                	sb	a1,1(a5)
     8b0:	47c1                	li	a5,16
     8b2:	83c18913          	addi	s2,gp,-1988 # 200000bc <s_rsp>
     8b6:	02f71e63          	bne	a4,a5,8f2 <CH32_App_RunOnce+0x66>
     8ba:	8241c783          	lbu	a5,-2012(gp) # 200000a4 <s_action_busy>
     8be:	82418493          	addi	s1,gp,-2012 # 200000a4 <s_action_busy>
     8c2:	c799                	beqz	a5,8d0 <CH32_App_RunOnce+0x44>
     8c4:	ff950793          	addi	a5,a0,-7
     8c8:	4709                	li	a4,2
     8ca:	461d                	li	a2,7
     8cc:	16f76863          	bltu	a4,a5,a3c <CH32_App_RunOnce+0x1b0>
     8d0:	fff50793          	addi	a5,a0,-1
     8d4:	0ff7f793          	andi	a5,a5,255
     8d8:	4729                	li	a4,10
     8da:	16f76063          	bltu	a4,a5,a3a <CH32_App_RunOnce+0x1ae>
     8de:	670d                	lui	a4,0x3
     8e0:	078a                	slli	a5,a5,0x2
     8e2:	7b870713          	addi	a4,a4,1976 # 37b8 <_read+0xa8>
     8e6:	97ba                	add	a5,a5,a4
     8e8:	439c                	lw	a5,0(a5)
     8ea:	8782                	jr	a5
     8ec:	4505                	li	a0,1
     8ee:	2615                	jal	c12 <ESP32_Comm_SendProtoAck>
     8f0:	39bd                	jal	56e <send_idle_heartbeat>
     8f2:	6121                	addi	sp,sp,64
     8f4:	84dff06f          	j	140 <__riscv_restore_10>
     8f8:	82018c23          	sb	zero,-1992(gp) # 200000b8 <s_locked>
     8fc:	82018823          	sb	zero,-2000(gp) # 200000b0 <s_last_error>
     900:	00095703          	lhu	a4,0(s2)
     904:	4785                	li	a5,1
     906:	4509                	li	a0,2
     908:	82e19423          	sh	a4,-2008(gp) # 200000a8 <s_action_rsp>
     90c:	82f18523          	sb	a5,-2006(gp) # 200000aa <s_action_rsp_valid>
     910:	a09c                	sb	a5,0(s1)
     912:	2601                	jal	c12 <ESP32_Comm_SendProtoAck>
     914:	314d                	jal	5b6 <ensure_hx711_ready>
     916:	82818993          	addi	s3,gp,-2008 # 200000a8 <s_action_rsp>
     91a:	82a18a13          	addi	s4,gp,-2006 # 200000aa <s_action_rsp_valid>
     91e:	e501                	bnez	a0,926 <CH32_App_RunOnce+0x9a>
     920:	4515                	li	a0,5
     922:	3305                	jal	642 <send_fault>
     924:	a025                	j	94c <CH32_App_RunOnce+0xc0>
     926:	450d                	li	a0,3
     928:	3391                	jal	66c <send_stage.constprop.6>
     92a:	4501                	li	a0,0
     92c:	35a5                	jal	794 <stepper_move_interruptible.constprop.4>
     92e:	ed19                	bnez	a0,94c <CH32_App_RunOnce+0xc0>
     930:	4511                	li	a0,4
     932:	3b2d                	jal	66c <send_stage.constprop.6>
     934:	4515                	li	a0,5
     936:	3b1d                	jal	66c <send_stage.constprop.6>
     938:	affff0ef          	jal	ra,436 <PushRod_Extend>
     93c:	6505                	lui	a0,0x1
     93e:	a2850513          	addi	a0,a0,-1496 # a28 <CH32_App_RunOnce+0x19c>
     942:	350d                	jal	764 <delay_ms_with_abort>
     944:	842a                	mv	s0,a0
     946:	cd09                	beqz	a0,960 <CH32_App_RunOnce+0xd4>
     948:	b47ff0ef          	jal	ra,48e <PushRod_Stop>
     94c:	b43ff0ef          	jal	ra,48e <PushRod_Stop>
     950:	b75ff0ef          	jal	ra,4c4 <TMC2209_Disable>
     954:	2445                	jal	bf4 <ESP32_Comm_FlushRx>
     956:	00048023          	sb	zero,0(s1)
     95a:	000a0023          	sb	zero,0(s4)
     95e:	bf51                	j	8f2 <CH32_App_RunOnce+0x66>
     960:	b2fff0ef          	jal	ra,48e <PushRod_Stop>
     964:	4519                	li	a0,6
     966:	3319                	jal	66c <send_stage.constprop.6>
     968:	451d                	li	a0,7
     96a:	3309                	jal	66c <send_stage.constprop.6>
     96c:	04b00a93          	li	s5,75
     970:	4bcd                	li	s7,19
     972:	4c09                	li	s8,2
     974:	3389                	jal	6b6 <pump_runtime_packets>
     976:	f979                	bnez	a0,94c <CH32_App_RunOnce+0xc0>
     978:	39a1                	jal	5d0 <get_weight_avg.constprop.5>
     97a:	000a4783          	lbu	a5,0(s4)
     97e:	82a1aa23          	sw	a0,-1996(gp) # 200000b4 <s_last_weight_g>
     982:	83418c93          	addi	s9,gp,-1996 # 200000b4 <s_last_weight_g>
     986:	854a                	mv	a0,s2
     988:	c391                	beqz	a5,98c <CH32_App_RunOnce+0x100>
     98a:	854e                	mv	a0,s3
     98c:	4601                	li	a2,0
     98e:	459d                	li	a1,7
     990:	39b5                	jal	60c <send_proto_state_ctx.constprop.7>
     992:	000ca783          	lw	a5,0(s9)
     996:	00fbdf63          	bge	s7,a5,9b4 <CH32_App_RunOnce+0x128>
     99a:	0405                	addi	s0,s0,1
     99c:	0ff47413          	andi	s0,s0,255
     9a0:	008c7b63          	bgeu	s8,s0,9b6 <CH32_App_RunOnce+0x12a>
     9a4:	4521                	li	a0,8
     9a6:	31d9                	jal	66c <send_stage.constprop.6>
     9a8:	4505                	li	a0,1
     9aa:	35b1                	jal	7f6 <close_to_safe_locked>
     9ac:	d145                	beqz	a0,94c <CH32_App_RunOnce+0xc0>
     9ae:	4535                	li	a0,13
     9b0:	3975                	jal	66c <send_stage.constprop.6>
     9b2:	bf69                	j	94c <CH32_App_RunOnce+0xc0>
     9b4:	4401                	li	s0,0
     9b6:	0c800513          	li	a0,200
     9ba:	336d                	jal	764 <delay_ms_with_abort>
     9bc:	f941                	bnez	a0,94c <CH32_App_RunOnce+0xc0>
     9be:	1afd                	addi	s5,s5,-1
     9c0:	fa0a9ae3          	bnez	s5,974 <CH32_App_RunOnce+0xe8>
     9c4:	3d0d                	jal	7f6 <close_to_safe_locked>
     9c6:	4505                	li	a0,1
     9c8:	bfa9                	j	922 <CH32_App_RunOnce+0x96>
     9ca:	451d                	li	a0,7
     9cc:	2499                	jal	c12 <ESP32_Comm_SendProtoAck>
     9ce:	8301c603          	lbu	a2,-2000(gp) # 200000b0 <s_last_error>
     9d2:	8041c583          	lbu	a1,-2044(gp) # 20000084 <s_current_stage>
     9d6:	83c18513          	addi	a0,gp,-1988 # 200000bc <s_rsp>
     9da:	390d                	jal	60c <send_proto_state_ctx.constprop.7>
     9dc:	bf19                	j	8f2 <CH32_App_RunOnce+0x66>
     9de:	4521                	li	a0,8
     9e0:	2c0d                	jal	c12 <ESP32_Comm_SendProtoAck>
     9e2:	3ed1                	jal	5b6 <ensure_hx711_ready>
     9e4:	e501                	bnez	a0,9ec <CH32_App_RunOnce+0x160>
     9e6:	4515                	li	a0,5
     9e8:	39a9                	jal	642 <send_fault>
     9ea:	b721                	j	8f2 <CH32_App_RunOnce+0x66>
     9ec:	36d5                	jal	5d0 <get_weight_avg.constprop.5>
     9ee:	82a1aa23          	sw	a0,-1996(gp) # 200000b4 <s_last_weight_g>
     9f2:	4601                	li	a2,0
     9f4:	bff9                	j	9d2 <CH32_App_RunOnce+0x146>
     9f6:	4525                	li	a0,9
     9f8:	2c29                	jal	c12 <ESP32_Comm_SendProtoAck>
     9fa:	a95ff0ef          	jal	ra,48e <PushRod_Stop>
     9fe:	ac7ff0ef          	jal	ra,4c4 <TMC2209_Disable>
     a02:	2acd                	jal	bf4 <ESP32_Comm_FlushRx>
     a04:	82018523          	sb	zero,-2006(gp) # 200000aa <s_action_rsp_valid>
     a08:	82018823          	sb	zero,-2000(gp) # 200000b0 <s_last_error>
     a0c:	00048023          	sb	zero,0(s1)
     a10:	82018c23          	sb	zero,-1992(gp) # 200000b8 <s_locked>
     a14:	4505                	li	a0,1
     a16:	3999                	jal	66c <send_stage.constprop.6>
     a18:	bde9                	j	8f2 <CH32_App_RunOnce+0x66>
     a1a:	4529                	li	a0,10
     a1c:	2add                	jal	c12 <ESP32_Comm_SendProtoAck>
     a1e:	82018823          	sb	zero,-2000(gp) # 200000b0 <s_last_error>
     a22:	82018c23          	sb	zero,-1992(gp) # 200000b8 <s_locked>
     a26:	82018523          	sb	zero,-2006(gp) # 200000aa <s_action_rsp_valid>
     a2a:	4509                	li	a0,2
     a2c:	b7ed                	j	a16 <CH32_App_RunOnce+0x18a>
     a2e:	452d                	li	a0,11
     a30:	22cd                	jal	c12 <ESP32_Comm_SendProtoAck>
     a32:	2ba1                	jal	f8a <InnerDoor_Open>
     a34:	8041c503          	lbu	a0,-2044(gp) # 20000084 <s_current_stage>
     a38:	bff9                	j	a16 <CH32_App_RunOnce+0x18a>
     a3a:	4621                	li	a2,8
     a3c:	2411                	jal	c40 <ESP32_Comm_SendProtoNack>
     a3e:	bd55                	j	8f2 <CH32_App_RunOnce+0x66>
     a40:	4529                	li	a0,10
     a42:	5bf000ef          	jal	ra,1800 <Delay_Ms>
     a46:	401c                	lw	a5,0(s0)
     a48:	8241c703          	lbu	a4,-2012(gp) # 200000a4 <s_action_busy>
     a4c:	07a9                	addi	a5,a5,10
     a4e:	c01c                	sw	a5,0(s0)
     a50:	ea0711e3          	bnez	a4,8f2 <CH32_App_RunOnce+0x66>
     a54:	1f300713          	li	a4,499
     a58:	e8f77de3          	bgeu	a4,a5,8f2 <CH32_App_RunOnce+0x66>
     a5c:	b13ff0ef          	jal	ra,56e <send_idle_heartbeat>
     a60:	00042023          	sw	zero,0(s0)
     a64:	b579                	j	8f2 <CH32_App_RunOnce+0x66>

00000a66 <NMI_Handler>:
     a66:	a001                	j	a66 <NMI_Handler>

00000a68 <HardFault_Handler>:
     a68:	beef07b7          	lui	a5,0xbeef0
     a6c:	e000e737          	lui	a4,0xe000e
     a70:	08078793          	addi	a5,a5,128 # beef0080 <_eusrstack+0x9eeeb080>
     a74:	c73c                	sw	a5,72(a4)
     a76:	a001                	j	a76 <HardFault_Handler+0xe>

00000a78 <esp32_comm_crc16_ibm>:
     a78:	67c1                	lui	a5,0x10
     a7a:	7669                	lui	a2,0xffffa
     a7c:	4681                	li	a3,0
     a7e:	17fd                	addi	a5,a5,-1
     a80:	0605                	addi	a2,a2,1
     a82:	01069713          	slli	a4,a3,0x10
     a86:	8341                	srli	a4,a4,0x10
     a88:	00b76463          	bltu	a4,a1,a90 <esp32_comm_crc16_ibm+0x18>
     a8c:	853e                	mv	a0,a5
     a8e:	8082                	ret
     a90:	00d50733          	add	a4,a0,a3
     a94:	2318                	lbu	a4,0(a4)
     a96:	8fb9                	xor	a5,a5,a4
     a98:	4721                	li	a4,8
     a9a:	0017f813          	andi	a6,a5,1
     a9e:	8385                	srli	a5,a5,0x1
     aa0:	00080563          	beqz	a6,aaa <esp32_comm_crc16_ibm+0x32>
     aa4:	8fb1                	xor	a5,a5,a2
     aa6:	07c2                	slli	a5,a5,0x10
     aa8:	83c1                	srli	a5,a5,0x10
     aaa:	177d                	addi	a4,a4,-1
     aac:	0ff77713          	andi	a4,a4,255
     ab0:	f76d                	bnez	a4,a9a <esp32_comm_crc16_ibm+0x22>
     ab2:	0685                	addi	a3,a3,1
     ab4:	b7f9                	j	a82 <esp32_comm_crc16_ibm+0xa>

00000ab6 <esp32_comm_send_bytes.part.0.constprop.2>:
     ab6:	e60ff2ef          	jal	t0,116 <__riscv_save_4>
     aba:	400144b7          	lui	s1,0x40014
     abe:	89aa                	mv	s3,a0
     ac0:	892e                	mv	s2,a1
     ac2:	4401                	li	s0,0
     ac4:	80048493          	addi	s1,s1,-2048 # 40013800 <_eusrstack+0x2000e800>
     ac8:	008987b3          	add	a5,s3,s0
     acc:	238c                	lbu	a1,0(a5)
     ace:	8526                	mv	a0,s1
     ad0:	45f000ef          	jal	ra,172e <USART_SendData>
     ad4:	04000593          	li	a1,64
     ad8:	8526                	mv	a0,s1
     ada:	465000ef          	jal	ra,173e <USART_GetFlagStatus>
     ade:	d97d                	beqz	a0,ad4 <esp32_comm_send_bytes.part.0.constprop.2+0x1e>
     ae0:	0405                	addi	s0,s0,1
     ae2:	01041793          	slli	a5,s0,0x10
     ae6:	83c1                	srli	a5,a5,0x10
     ae8:	ff27e0e3          	bltu	a5,s2,ac8 <esp32_comm_send_bytes.part.0.constprop.2+0x12>
     aec:	e5eff06f          	j	14a <__riscv_restore_4>

00000af0 <ESP32_Comm_Init>:
     af0:	e40ff2ef          	jal	t0,130 <__riscv_save_0>
     af4:	84019223          	sh	zero,-1980(gp) # 200000c4 <s_rx_head>
     af8:	84019323          	sh	zero,-1978(gp) # 200000c6 <s_rx_tail>
     afc:	84018123          	sb	zero,-1982(gp) # 200000c2 <s_proto_state>
     b00:	82018fa3          	sb	zero,-1985(gp) # 200000bf <s_proto_index>
     b04:	84018023          	sb	zero,-1984(gp) # 200000c0 <s_proto_len>
     b08:	6511                	lui	a0,0x4
     b0a:	7179                	addi	sp,sp,-48
     b0c:	82018f23          	sb	zero,-1986(gp) # 200000be <s_proto_cmd>
     b10:	4585                	li	a1,1
     b12:	0511                	addi	a0,a0,4
     b14:	ca02                	sw	zero,20(sp)
     b16:	cc02                	sw	zero,24(sp)
     b18:	ce02                	sw	zero,28(sp)
     b1a:	d002                	sw	zero,32(sp)
     b1c:	d202                	sw	zero,36(sp)
     b1e:	d402                	sw	zero,40(sp)
     b20:	d602                	sw	zero,44(sp)
     b22:	c602                	sw	zero,12(sp)
     b24:	c802                	sw	zero,16(sp)
     b26:	840180a3          	sb	zero,-1983(gp) # 200000c1 <s_proto_seq>
     b2a:	1c7000ef          	jal	ra,14f0 <RCC_APB2PeriphClockCmd>
     b2e:	20000793          	li	a5,512
     b32:	82fc                	sh	a5,20(sp)
     b34:	40011437          	lui	s0,0x40011
     b38:	47e1                	li	a5,24
     b3a:	ce3e                	sw	a5,28(sp)
     b3c:	084c                	addi	a1,sp,20
     b3e:	478d                	li	a5,3
     b40:	80040513          	addi	a0,s0,-2048 # 40010800 <_eusrstack+0x2000b800>
     b44:	cc3e                	sw	a5,24(sp)
     b46:	750000ef          	jal	ra,1296 <GPIO_Init>
     b4a:	40000793          	li	a5,1024
     b4e:	82fc                	sh	a5,20(sp)
     b50:	084c                	addi	a1,sp,20
     b52:	04800793          	li	a5,72
     b56:	80040513          	addi	a0,s0,-2048
     b5a:	ce3e                	sw	a5,28(sp)
     b5c:	73a000ef          	jal	ra,1296 <GPIO_Init>
     b60:	67f1                	lui	a5,0x1c
     b62:	40014437          	lui	s0,0x40014
     b66:	20078793          	addi	a5,a5,512 # 1c200 <_data_lma+0x18754>
     b6a:	d03e                	sw	a5,32(sp)
     b6c:	100c                	addi	a1,sp,32
     b6e:	000c07b7          	lui	a5,0xc0
     b72:	80040513          	addi	a0,s0,-2048 # 40013800 <_eusrstack+0x2000e800>
     b76:	d43e                	sw	a5,40(sp)
     b78:	d202                	sw	zero,36(sp)
     b7a:	02011623          	sh	zero,44(sp)
     b7e:	2bf000ef          	jal	ra,163c <USART_Init>
     b82:	80040513          	addi	a0,s0,-2048
     b86:	02000593          	li	a1,32
     b8a:	3bf000ef          	jal	ra,1748 <USART_ClearFlag>
     b8e:	4605                	li	a2,1
     b90:	52500593          	li	a1,1317
     b94:	80040513          	addi	a0,s0,-2048
     b98:	361000ef          	jal	ra,16f8 <USART_ITConfig>
     b9c:	13500793          	li	a5,309
     ba0:	867c                	sh	a5,12(sp)
     ba2:	0068                	addi	a0,sp,12
     ba4:	4785                	li	a5,1
     ba6:	c83e                	sw	a5,16(sp)
     ba8:	00010723          	sb	zero,14(sp)
     bac:	025000ef          	jal	ra,13d0 <NVIC_Init>
     bb0:	4585                	li	a1,1
     bb2:	80040513          	addi	a0,s0,-2048
     bb6:	32d000ef          	jal	ra,16e2 <USART_Cmd>
     bba:	6145                	addi	sp,sp,48
     bbc:	d98ff06f          	j	154 <__riscv_restore_0>

00000bc0 <ESP32_Comm_ReadByte>:
     bc0:	4701                	li	a4,0
     bc2:	c51d                	beqz	a0,bf0 <ESP32_Comm_ReadByte+0x30>
     bc4:	8441d603          	lhu	a2,-1980(gp) # 200000c4 <s_rx_head>
     bc8:	84618793          	addi	a5,gp,-1978 # 200000c6 <s_rx_tail>
     bcc:	2396                	lhu	a3,0(a5)
     bce:	4701                	li	a4,0
     bd0:	06c2                	slli	a3,a3,0x10
     bd2:	82c1                	srli	a3,a3,0x10
     bd4:	00c68e63          	beq	a3,a2,bf0 <ESP32_Comm_ReadByte+0x30>
     bd8:	2396                	lhu	a3,0(a5)
     bda:	89418713          	addi	a4,gp,-1900 # 20000114 <s_rx_fifo>
     bde:	9736                	add	a4,a4,a3
     be0:	2318                	lbu	a4,0(a4)
     be2:	a118                	sb	a4,0(a0)
     be4:	239a                	lhu	a4,0(a5)
     be6:	0705                	addi	a4,a4,1
     be8:	07f77713          	andi	a4,a4,127
     bec:	a39a                	sh	a4,0(a5)
     bee:	4705                	li	a4,1
     bf0:	853a                	mv	a0,a4
     bf2:	8082                	ret

00000bf4 <ESP32_Comm_FlushRx>:
     bf4:	84019223          	sh	zero,-1980(gp) # 200000c4 <s_rx_head>
     bf8:	84019323          	sh	zero,-1978(gp) # 200000c6 <s_rx_tail>
     bfc:	84018123          	sb	zero,-1982(gp) # 200000c2 <s_proto_state>
     c00:	82018fa3          	sb	zero,-1985(gp) # 200000bf <s_proto_index>
     c04:	84018023          	sb	zero,-1984(gp) # 200000c0 <s_proto_len>
     c08:	82018f23          	sb	zero,-1986(gp) # 200000be <s_proto_cmd>
     c0c:	840180a3          	sb	zero,-1983(gp) # 200000c1 <s_proto_seq>
     c10:	8082                	ret

00000c12 <ESP32_Comm_SendProtoAck>:
     c12:	d1eff2ef          	jal	t0,130 <__riscv_save_0>
     c16:	77ed                	lui	a5,0xffffb
     c18:	1141                	addi	sp,sp,-16
     c1a:	a5578793          	addi	a5,a5,-1451 # ffffaa55 <_eusrstack+0xdfff5a55>
     c1e:	847c                	sh	a5,8(sp)
     c20:	85c8                	sb	a0,11(sp)
     c22:	47c5                	li	a5,17
     c24:	864c                	sb	a1,12(sp)
     c26:	0028                	addi	a0,sp,8
     c28:	4599                	li	a1,6
     c2a:	855c                	sb	a5,10(sp)
     c2c:	000106a3          	sb	zero,13(sp)
     c30:	35a1                	jal	a78 <esp32_comm_crc16_ibm>
     c32:	8768                	sh	a0,14(sp)
     c34:	45a1                	li	a1,8
     c36:	0028                	addi	a0,sp,8
     c38:	3dbd                	jal	ab6 <esp32_comm_send_bytes.part.0.constprop.2>
     c3a:	0141                	addi	sp,sp,16
     c3c:	d18ff06f          	j	154 <__riscv_restore_0>

00000c40 <ESP32_Comm_SendProtoNack>:
     c40:	cf0ff2ef          	jal	t0,130 <__riscv_save_0>
     c44:	77ed                	lui	a5,0xffffb
     c46:	1141                	addi	sp,sp,-16
     c48:	a5578793          	addi	a5,a5,-1451 # ffffaa55 <_eusrstack+0xdfff5a55>
     c4c:	827c                	sh	a5,4(sp)
     c4e:	47c9                	li	a5,18
     c50:	835c                	sb	a5,6(sp)
     c52:	83c8                	sb	a0,7(sp)
     c54:	4785                	li	a5,1
     c56:	844c                	sb	a1,8(sp)
     c58:	0048                	addi	a0,sp,4
     c5a:	459d                	li	a1,7
     c5c:	84dc                	sb	a5,9(sp)
     c5e:	8550                	sb	a2,10(sp)
     c60:	3d21                	jal	a78 <esp32_comm_crc16_ibm>
     c62:	85c8                	sb	a0,11(sp)
     c64:	8121                	srli	a0,a0,0x8
     c66:	8648                	sb	a0,12(sp)
     c68:	45a5                	li	a1,9
     c6a:	0048                	addi	a0,sp,4
     c6c:	35a9                	jal	ab6 <esp32_comm_send_bytes.part.0.constprop.2>
     c6e:	0141                	addi	sp,sp,16
     c70:	ce4ff06f          	j	154 <__riscv_restore_0>

00000c74 <ESP32_Comm_ReadPacket>:
     c74:	c8cff2ef          	jal	t0,100 <__riscv_save_12>
     c78:	1141                	addi	sp,sp,-16
     c7a:	000107a3          	sb	zero,15(sp)
     c7e:	c919                	beqz	a0,c94 <ESP32_Comm_ReadPacket+0x20>
     c80:	6b8d                	lui	s7,0x3
     c82:	89aa                	mv	s3,a0
     c84:	7e4b8b93          	addi	s7,s7,2020 # 37e4 <_read+0xd4>
     c88:	85c18413          	addi	s0,gp,-1956 # 200000dc <s_proto_buf>
     c8c:	00f10513          	addi	a0,sp,15
     c90:	3f05                	jal	bc0 <ESP32_Comm_ReadByte>
     c92:	e509                	bnez	a0,c9c <ESP32_Comm_ReadPacket+0x28>
     c94:	4501                	li	a0,0
     c96:	0141                	addi	sp,sp,16
     c98:	ca4ff06f          	j	13c <__riscv_restore_12>
     c9c:	84218693          	addi	a3,gp,-1982 # 200000c2 <s_proto_state>
     ca0:	2298                	lbu	a4,0(a3)
     ca2:	4621                	li	a2,8
     ca4:	879c                	lbu	a5,15(sp)
     ca6:	84218493          	addi	s1,gp,-1982 # 200000c2 <s_proto_state>
     caa:	1ce66463          	bltu	a2,a4,e72 <ESP32_Comm_ReadPacket+0x1fe>
     cae:	070a                	slli	a4,a4,0x2
     cb0:	975e                	add	a4,a4,s7
     cb2:	4318                	lw	a4,0(a4)
     cb4:	8702                	jr	a4
     cb6:	05500713          	li	a4,85
     cba:	fce799e3          	bne	a5,a4,c8c <ESP32_Comm_ReadPacket+0x18>
     cbe:	a01c                	sb	a5,0(s0)
     cc0:	4785                	li	a5,1
     cc2:	82f18fa3          	sb	a5,-1985(gp) # 200000bf <s_proto_index>
     cc6:	84018023          	sb	zero,-1984(gp) # 200000c0 <s_proto_len>
     cca:	82018f23          	sb	zero,-1986(gp) # 200000be <s_proto_cmd>
     cce:	840180a3          	sb	zero,-1983(gp) # 200000c1 <s_proto_seq>
     cd2:	a09c                	sb	a5,0(s1)
     cd4:	bf65                	j	c8c <ESP32_Comm_ReadPacket+0x18>
     cd6:	0aa00693          	li	a3,170
     cda:	83f18713          	addi	a4,gp,-1985 # 200000bf <s_proto_index>
     cde:	00d79c63          	bne	a5,a3,cf6 <ESP32_Comm_ReadPacket+0x82>
     ce2:	231c                	lbu	a5,0(a4)
     ce4:	00178693          	addi	a3,a5,1
     ce8:	a314                	sb	a3,0(a4)
     cea:	97a2                	add	a5,a5,s0
     cec:	faa00713          	li	a4,-86
     cf0:	a398                	sb	a4,0(a5)
     cf2:	4789                	li	a5,2
     cf4:	bff9                	j	cd2 <ESP32_Comm_ReadPacket+0x5e>
     cf6:	05500693          	li	a3,85
     cfa:	00d79663          	bne	a5,a3,d06 <ESP32_Comm_ReadPacket+0x92>
     cfe:	a01c                	sb	a5,0(s0)
     d00:	4785                	li	a5,1
     d02:	a31c                	sb	a5,0(a4)
     d04:	b761                	j	c8c <ESP32_Comm_ReadPacket+0x18>
     d06:	00048023          	sb	zero,0(s1)
     d0a:	00070023          	sb	zero,0(a4) # e000e000 <_eusrstack+0xc0009000>
     d0e:	bfbd                	j	c8c <ESP32_Comm_ReadPacket+0x18>
     d10:	83f18693          	addi	a3,gp,-1985 # 200000bf <s_proto_index>
     d14:	2298                	lbu	a4,0(a3)
     d16:	00170613          	addi	a2,a4,1
     d1a:	9722                	add	a4,a4,s0
     d1c:	a31c                	sb	a5,0(a4)
     d1e:	a290                	sb	a2,0(a3)
     d20:	478d                	li	a5,3
     d22:	bf45                	j	cd2 <ESP32_Comm_ReadPacket+0x5e>
     d24:	83f18693          	addi	a3,gp,-1985 # 200000bf <s_proto_index>
     d28:	82f18f23          	sb	a5,-1986(gp) # 200000be <s_proto_cmd>
     d2c:	2298                	lbu	a4,0(a3)
     d2e:	00170613          	addi	a2,a4,1
     d32:	9722                	add	a4,a4,s0
     d34:	a31c                	sb	a5,0(a4)
     d36:	a290                	sb	a2,0(a3)
     d38:	4791                	li	a5,4
     d3a:	bf61                	j	cd2 <ESP32_Comm_ReadPacket+0x5e>
     d3c:	83f18693          	addi	a3,gp,-1985 # 200000bf <s_proto_index>
     d40:	2298                	lbu	a4,0(a3)
     d42:	84f180a3          	sb	a5,-1983(gp) # 200000c1 <s_proto_seq>
     d46:	00170613          	addi	a2,a4,1
     d4a:	9722                	add	a4,a4,s0
     d4c:	a31c                	sb	a5,0(a4)
     d4e:	a290                	sb	a2,0(a3)
     d50:	4795                	li	a5,5
     d52:	b741                	j	cd2 <ESP32_Comm_ReadPacket+0x5e>
     d54:	03000713          	li	a4,48
     d58:	83f18693          	addi	a3,gp,-1985 # 200000bf <s_proto_index>
     d5c:	00f77d63          	bgeu	a4,a5,d76 <ESP32_Comm_ReadPacket+0x102>
     d60:	8411c583          	lbu	a1,-1983(gp) # 200000c1 <s_proto_seq>
     d64:	83e1c503          	lbu	a0,-1986(gp) # 200000be <s_proto_cmd>
     d68:	4629                	li	a2,10
     d6a:	00048023          	sb	zero,0(s1)
     d6e:	00068023          	sb	zero,0(a3)
     d72:	35f9                	jal	c40 <ESP32_Comm_SendProtoNack>
     d74:	bf21                	j	c8c <ESP32_Comm_ReadPacket+0x18>
     d76:	2298                	lbu	a4,0(a3)
     d78:	84f18023          	sb	a5,-1984(gp) # 200000c0 <s_proto_len>
     d7c:	00170613          	addi	a2,a4,1
     d80:	9722                	add	a4,a4,s0
     d82:	a31c                	sb	a5,0(a4)
     d84:	0017b793          	seqz	a5,a5
     d88:	a290                	sb	a2,0(a3)
     d8a:	0799                	addi	a5,a5,6
     d8c:	b799                	j	cd2 <ESP32_Comm_ReadPacket+0x5e>
     d8e:	83f18613          	addi	a2,gp,-1985 # 200000bf <s_proto_index>
     d92:	2214                	lbu	a3,0(a2)
     d94:	00168713          	addi	a4,a3,1
     d98:	96a2                	add	a3,a3,s0
     d9a:	a29c                	sb	a5,0(a3)
     d9c:	8401c783          	lbu	a5,-1984(gp) # 200000c0 <s_proto_len>
     da0:	0ff77713          	andi	a4,a4,255
     da4:	a218                	sb	a4,0(a2)
     da6:	0799                	addi	a5,a5,6
     da8:	0ff7f793          	andi	a5,a5,255
     dac:	eef760e3          	bltu	a4,a5,c8c <ESP32_Comm_ReadPacket+0x18>
     db0:	479d                	li	a5,7
     db2:	b705                	j	cd2 <ESP32_Comm_ReadPacket+0x5e>
     db4:	83f18693          	addi	a3,gp,-1985 # 200000bf <s_proto_index>
     db8:	2298                	lbu	a4,0(a3)
     dba:	00170613          	addi	a2,a4,1
     dbe:	9722                	add	a4,a4,s0
     dc0:	a31c                	sb	a5,0(a4)
     dc2:	a290                	sb	a2,0(a3)
     dc4:	47a1                	li	a5,8
     dc6:	b731                	j	cd2 <ESP32_Comm_ReadPacket+0x5e>
     dc8:	84018c93          	addi	s9,gp,-1984 # 200000c0 <s_proto_len>
     dcc:	000ccd83          	lbu	s11,0(s9)
     dd0:	83f18d13          	addi	s10,gp,-1985 # 200000bf <s_proto_index>
     dd4:	000d4703          	lbu	a4,0(s10)
     dd8:	008d8a13          	addi	s4,s11,8
     ddc:	0ffa7a13          	andi	s4,s4,255
     de0:	ffea0593          	addi	a1,s4,-2
     de4:	05c2                	slli	a1,a1,0x10
     de6:	00170613          	addi	a2,a4,1
     dea:	81c1                	srli	a1,a1,0x10
     dec:	9722                	add	a4,a4,s0
     dee:	8522                	mv	a0,s0
     df0:	a31c                	sb	a5,0(a4)
     df2:	9a22                	add	s4,s4,s0
     df4:	00cd0023          	sb	a2,0(s10)
     df8:	c81ff0ef          	jal	ra,a78 <esp32_comm_crc16_ibm>
     dfc:	fffa4783          	lbu	a5,-1(s4)
     e00:	ffea4703          	lbu	a4,-2(s4)
     e04:	84018a13          	addi	s4,gp,-1984 # 200000c0 <s_proto_len>
     e08:	07a2                	slli	a5,a5,0x8
     e0a:	8fd9                	or	a5,a5,a4
     e0c:	04f51663          	bne	a0,a5,e58 <ESP32_Comm_ReadPacket+0x1e4>
     e10:	03400613          	li	a2,52
     e14:	4581                	li	a1,0
     e16:	854e                	mv	a0,s3
     e18:	b48ff0ef          	jal	ra,160 <memset>
     e1c:	203c                	lbu	a5,2(s0)
     e1e:	00f98023          	sb	a5,0(s3)
     e22:	303c                	lbu	a5,3(s0)
     e24:	00f980a3          	sb	a5,1(s3)
     e28:	205c                	lbu	a5,4(s0)
     e2a:	01b981a3          	sb	s11,3(s3)
     e2e:	00f98123          	sb	a5,2(s3)
     e32:	000d8963          	beqz	s11,e44 <ESP32_Comm_ReadPacket+0x1d0>
     e36:	866e                	mv	a2,s11
     e38:	00640593          	addi	a1,s0,6
     e3c:	00498513          	addi	a0,s3,4
     e40:	65e010ef          	jal	ra,249e <memcpy>
     e44:	83f18793          	addi	a5,gp,-1985 # 200000bf <s_proto_index>
     e48:	00048023          	sb	zero,0(s1)
     e4c:	00078023          	sb	zero,0(a5)
     e50:	000a0023          	sb	zero,0(s4)
     e54:	4505                	li	a0,1
     e56:	b581                	j	c96 <ESP32_Comm_ReadPacket+0x22>
     e58:	8411c583          	lbu	a1,-1983(gp) # 200000c1 <s_proto_seq>
     e5c:	83e1c503          	lbu	a0,-1986(gp) # 200000be <s_proto_cmd>
     e60:	4625                	li	a2,9
     e62:	3bf9                	jal	c40 <ESP32_Comm_SendProtoNack>
     e64:	00048023          	sb	zero,0(s1)
     e68:	000d0023          	sb	zero,0(s10)
     e6c:	000c8023          	sb	zero,0(s9)
     e70:	bd31                	j	c8c <ESP32_Comm_ReadPacket+0x18>
     e72:	00068023          	sb	zero,0(a3)
     e76:	82018fa3          	sb	zero,-1985(gp) # 200000bf <s_proto_index>
     e7a:	84018023          	sb	zero,-1984(gp) # 200000c0 <s_proto_len>
     e7e:	b539                	j	c8c <ESP32_Comm_ReadPacket+0x18>

00000e80 <ESP32_Comm_SendProtoState>:
     e80:	ab0ff2ef          	jal	t0,130 <__riscv_save_0>
     e84:	1141                	addi	sp,sp,-16
     e86:	78ed                	lui	a7,0xffffb
     e88:	a5588893          	addi	a7,a7,-1451 # ffffaa55 <_eusrstack+0xdfff5a55>
     e8c:	8148                	sb	a0,2(sp)
     e8e:	81cc                	sb	a1,3(sp)
     e90:	8250                	sb	a2,4(sp)
     e92:	847c                	sh	a5,8(sp)
     e94:	4621                	li	a2,8
     e96:	01085793          	srli	a5,a6,0x10
     e9a:	01011523          	sh	a6,10(sp)
     e9e:	45b9                	li	a1,14
     ea0:	01885813          	srli	a6,a6,0x18
     ea4:	850a                	mv	a0,sp
     ea6:	01111023          	sh	a7,0(sp)
     eaa:	82d0                	sb	a2,5(sp)
     eac:	8354                	sb	a3,6(sp)
     eae:	83d8                	sb	a4,7(sp)
     eb0:	865c                	sb	a5,12(sp)
     eb2:	010106a3          	sb	a6,13(sp)
     eb6:	bc3ff0ef          	jal	ra,a78 <esp32_comm_crc16_ibm>
     eba:	8768                	sh	a0,14(sp)
     ebc:	45c1                	li	a1,16
     ebe:	850a                	mv	a0,sp
     ec0:	bf7ff0ef          	jal	ra,ab6 <esp32_comm_send_bytes.part.0.constprop.2>
     ec4:	0141                	addi	sp,sp,16
     ec6:	a8eff06f          	j	154 <__riscv_restore_0>

00000eca <USART1_IRQHandler>:
     eca:	1141                	addi	sp,sp,-16
     ecc:	c622                	sw	s0,12(sp)
     ece:	40014437          	lui	s0,0x40014
     ed2:	52500593          	li	a1,1317
     ed6:	80040513          	addi	a0,s0,-2048 # 40013800 <_eusrstack+0x2000e800>
     eda:	07b000ef          	jal	ra,1754 <USART_GetITStatus>
     ede:	c539                	beqz	a0,f2c <USART1_IRQHandler+0x62>
     ee0:	80040513          	addi	a0,s0,-2048
     ee4:	053000ef          	jal	ra,1736 <USART_ReceiveData>
     ee8:	84418793          	addi	a5,gp,-1980 # 200000c4 <s_rx_head>
     eec:	239e                	lhu	a5,0(a5)
     eee:	84618693          	addi	a3,gp,-1978 # 200000c6 <s_rx_tail>
     ef2:	2292                	lhu	a2,0(a3)
     ef4:	0785                	addi	a5,a5,1
     ef6:	07f7f793          	andi	a5,a5,127
     efa:	0ff57513          	andi	a0,a0,255
     efe:	84418713          	addi	a4,gp,-1980 # 200000c4 <s_rx_head>
     f02:	00c79763          	bne	a5,a2,f10 <USART1_IRQHandler+0x46>
     f06:	2292                	lhu	a2,0(a3)
     f08:	0605                	addi	a2,a2,1
     f0a:	07f67613          	andi	a2,a2,127
     f0e:	a292                	sh	a2,0(a3)
     f10:	2312                	lhu	a2,0(a4)
     f12:	89418693          	addi	a3,gp,-1900 # 20000114 <s_rx_fifo>
     f16:	96b2                	add	a3,a3,a2
     f18:	a288                	sb	a0,0(a3)
     f1a:	40014537          	lui	a0,0x40014
     f1e:	52500593          	li	a1,1317
     f22:	80050513          	addi	a0,a0,-2048 # 40013800 <_eusrstack+0x2000e800>
     f26:	a31e                	sh	a5,0(a4)
     f28:	069000ef          	jal	ra,1790 <USART_ClearITPendingBit>
     f2c:	4432                	lw	s0,12(sp)
     f2e:	0141                	addi	sp,sp,16
     f30:	30200073          	mret

00000f34 <InnerDoor_SetAngle>:
     f34:	9fcff2ef          	jal	t0,130 <__riscv_save_0>
     f38:	0b400713          	li	a4,180
     f3c:	1141                	addi	sp,sp,-16
     f3e:	842a                	mv	s0,a0
     f40:	fb400793          	li	a5,-76
     f44:	00a76363          	bltu	a4,a0,f4a <InnerDoor_SetAngle+0x16>
     f48:	87aa                	mv	a5,a0
     f4a:	0ff7f613          	andi	a2,a5,255
     f4e:	7d000793          	li	a5,2000
     f52:	02f60633          	mul	a2,a2,a5
     f56:	0b400793          	li	a5,180
     f5a:	40000537          	lui	a0,0x40000
     f5e:	40050513          	addi	a0,a0,1024 # 40000400 <_eusrstack+0x1fffb400>
     f62:	02f65633          	divu	a2,a2,a5
     f66:	1f460613          	addi	a2,a2,500 # ffffa1f4 <_eusrstack+0xdfff51f4>
     f6a:	0642                	slli	a2,a2,0x10
     f6c:	8241                	srli	a2,a2,0x10
     f6e:	85b2                	mv	a1,a2
     f70:	c632                	sw	a2,12(sp)
     f72:	25d9                	jal	1638 <TIM_SetCompare1>
     f74:	4632                	lw	a2,12(sp)
     f76:	00004537          	lui	a0,0x4
     f7a:	85a2                	mv	a1,s0
     f7c:	86450513          	addi	a0,a0,-1948 # 3864 <_read+0x154>
     f80:	5d0010ef          	jal	ra,2550 <iprintf>
     f84:	0141                	addi	sp,sp,16
     f86:	9ceff06f          	j	154 <__riscv_restore_0>

00000f8a <InnerDoor_Open>:
     f8a:	9a6ff2ef          	jal	t0,130 <__riscv_save_0>
     f8e:	00004537          	lui	a0,0x4
     f92:	84c50513          	addi	a0,a0,-1972 # 384c <_read+0x13c>
     f96:	6ce010ef          	jal	ra,2664 <puts>
     f9a:	4501                	li	a0,0
     f9c:	3f61                	jal	f34 <InnerDoor_SetAngle>
     f9e:	9b6ff06f          	j	154 <__riscv_restore_0>

00000fa2 <InnerDoor_Close>:
     fa2:	98eff2ef          	jal	t0,130 <__riscv_save_0>
     fa6:	00004537          	lui	a0,0x4
     faa:	80850513          	addi	a0,a0,-2040 # 3808 <_read+0xf8>
     fae:	6b6010ef          	jal	ra,2664 <puts>
     fb2:	05a00513          	li	a0,90
     fb6:	3fbd                	jal	f34 <InnerDoor_SetAngle>
     fb8:	99cff06f          	j	154 <__riscv_restore_0>

00000fbc <InnerDoor_Init>:
     fbc:	974ff2ef          	jal	t0,130 <__riscv_save_0>
     fc0:	7179                	addi	sp,sp,-48
     fc2:	4585                	li	a1,1
     fc4:	4515                	li	a0,5
     fc6:	ca02                	sw	zero,20(sp)
     fc8:	cc02                	sw	zero,24(sp)
     fca:	ce02                	sw	zero,28(sp)
     fcc:	c402                	sw	zero,8(sp)
     fce:	c602                	sw	zero,12(sp)
     fd0:	00011823          	sh	zero,16(sp)
     fd4:	d002                	sw	zero,32(sp)
     fd6:	d202                	sw	zero,36(sp)
     fd8:	d402                	sw	zero,40(sp)
     fda:	d602                	sw	zero,44(sp)
     fdc:	2b11                	jal	14f0 <RCC_APB2PeriphClockCmd>
     fde:	4585                	li	a1,1
     fe0:	4509                	li	a0,2
     fe2:	2335                	jal	150e <RCC_APB1PeriphClockCmd>
     fe4:	04000793          	li	a5,64
     fe8:	82fc                	sh	a5,20(sp)
     fea:	40011537          	lui	a0,0x40011
     fee:	47e1                	li	a5,24
     ff0:	ce3e                	sw	a5,28(sp)
     ff2:	084c                	addi	a1,sp,20
     ff4:	478d                	li	a5,3
     ff6:	80050513          	addi	a0,a0,-2048 # 40010800 <_eusrstack+0x2000b800>
     ffa:	cc3e                	sw	a5,24(sp)
     ffc:	2c69                	jal	1296 <GPIO_Init>
     ffe:	8081a783          	lw	a5,-2040(gp) # 20000088 <SystemCoreClock>
    1002:	000f4737          	lui	a4,0xf4
    1006:	24070713          	addi	a4,a4,576 # f4240 <_data_lma+0xf0794>
    100a:	02e7d7b3          	divu	a5,a5,a4
    100e:	40000437          	lui	s0,0x40000
    1012:	002c                	addi	a1,sp,8
    1014:	40040513          	addi	a0,s0,1024 # 40000400 <_eusrstack+0x1fffb400>
    1018:	00011523          	sh	zero,10(sp)
    101c:	17fd                	addi	a5,a5,-1
    101e:	847c                	sh	a5,8(sp)
    1020:	6795                	lui	a5,0x5
    1022:	e1f78793          	addi	a5,a5,-481 # 4e1f <_data_lma+0x1373>
    1026:	c63e                	sw	a5,12(sp)
    1028:	2311                	jal	152c <TIM_TimeBaseInit>
    102a:	67c1                	lui	a5,0x10
    102c:	06078793          	addi	a5,a5,96 # 10060 <_data_lma+0xc5b4>
    1030:	d03e                	sw	a5,32(sp)
    1032:	100c                	addi	a1,sp,32
    1034:	1f400793          	li	a5,500
    1038:	40040513          	addi	a0,s0,1024
    103c:	02f11323          	sh	a5,38(sp)
    1040:	02011423          	sh	zero,40(sp)
    1044:	23a9                	jal	158e <TIM_OC1Init>
    1046:	40040513          	addi	a0,s0,1024
    104a:	45a1                	li	a1,8
    104c:	2bf9                	jal	162a <TIM_OC1PreloadConfig>
    104e:	40040513          	addi	a0,s0,1024
    1052:	4585                	li	a1,1
    1054:	2b75                	jal	1610 <TIM_ARRPreloadConfig>
    1056:	40040513          	addi	a0,s0,1024
    105a:	4585                	li	a1,1
    105c:	2b71                	jal	15f8 <TIM_Cmd>
    105e:	3791                	jal	fa2 <InnerDoor_Close>
    1060:	00004537          	lui	a0,0x4
    1064:	05a00593          	li	a1,90
    1068:	82050513          	addi	a0,a0,-2016 # 3820 <_read+0x110>
    106c:	4e4010ef          	jal	ra,2550 <iprintf>
    1070:	6145                	addi	sp,sp,48
    1072:	8e2ff06f          	j	154 <__riscv_restore_0>

00001076 <main>:
    1076:	8baff2ef          	jal	t0,130 <__riscv_save_0>
    107a:	4505                	li	a0,1
    107c:	26b9                	jal	13ca <NVIC_PriorityGroupConfig>
    107e:	2209                	jal	1180 <SystemCoreClockUpdate>
    1080:	2715                	jal	17a4 <Delay_Init>
    1082:	6571                	lui	a0,0x1c
    1084:	20050513          	addi	a0,a0,512 # 1c200 <_data_lma+0x18754>
    1088:	7ae000ef          	jal	ra,1836 <USART_Printf_Init>
    108c:	fb6ff0ef          	jal	ra,842 <CH32_App_Init>
    1090:	ffcff0ef          	jal	ra,88c <CH32_App_RunOnce>
    1094:	bff5                	j	1090 <main+0x1a>

00001096 <SystemInit>:
    1096:	400217b7          	lui	a5,0x40021
    109a:	4398                	lw	a4,0(a5)
    109c:	f0ff06b7          	lui	a3,0xf0ff0
    10a0:	1141                	addi	sp,sp,-16
    10a2:	00176713          	ori	a4,a4,1
    10a6:	c398                	sw	a4,0(a5)
    10a8:	43d8                	lw	a4,4(a5)
    10aa:	00020637          	lui	a2,0x20
    10ae:	8f75                	and	a4,a4,a3
    10b0:	c3d8                	sw	a4,4(a5)
    10b2:	4398                	lw	a4,0(a5)
    10b4:	fef706b7          	lui	a3,0xfef70
    10b8:	16fd                	addi	a3,a3,-1
    10ba:	8f75                	and	a4,a4,a3
    10bc:	c398                	sw	a4,0(a5)
    10be:	4398                	lw	a4,0(a5)
    10c0:	fffc06b7          	lui	a3,0xfffc0
    10c4:	16fd                	addi	a3,a3,-1
    10c6:	8f75                	and	a4,a4,a3
    10c8:	c398                	sw	a4,0(a5)
    10ca:	43d8                	lw	a4,4(a5)
    10cc:	ff0106b7          	lui	a3,0xff010
    10d0:	16fd                	addi	a3,a3,-1
    10d2:	8f75                	and	a4,a4,a3
    10d4:	c3d8                	sw	a4,4(a5)
    10d6:	009f0737          	lui	a4,0x9f0
    10da:	c798                	sw	a4,8(a5)
    10dc:	c402                	sw	zero,8(sp)
    10de:	c602                	sw	zero,12(sp)
    10e0:	4398                	lw	a4,0(a5)
    10e2:	66c1                	lui	a3,0x10
    10e4:	8f55                	or	a4,a4,a3
    10e6:	c398                	sw	a4,0(a5)
    10e8:	400216b7          	lui	a3,0x40021
    10ec:	6705                	lui	a4,0x1
    10ee:	429c                	lw	a5,0(a3)
    10f0:	8ff1                	and	a5,a5,a2
    10f2:	c63e                	sw	a5,12(sp)
    10f4:	47a2                	lw	a5,8(sp)
    10f6:	0785                	addi	a5,a5,1
    10f8:	c43e                	sw	a5,8(sp)
    10fa:	47b2                	lw	a5,12(sp)
    10fc:	e781                	bnez	a5,1104 <SystemInit+0x6e>
    10fe:	47a2                	lw	a5,8(sp)
    1100:	fee797e3          	bne	a5,a4,10ee <SystemInit+0x58>
    1104:	400217b7          	lui	a5,0x40021
    1108:	439c                	lw	a5,0(a5)
    110a:	00e79713          	slli	a4,a5,0xe
    110e:	06075763          	bgez	a4,117c <SystemInit+0xe6>
    1112:	4785                	li	a5,1
    1114:	c63e                	sw	a5,12(sp)
    1116:	4732                	lw	a4,12(sp)
    1118:	4785                	li	a5,1
    111a:	04f71f63          	bne	a4,a5,1178 <SystemInit+0xe2>
    111e:	400217b7          	lui	a5,0x40021
    1122:	43d8                	lw	a4,4(a5)
    1124:	ffc106b7          	lui	a3,0xffc10
    1128:	16fd                	addi	a3,a3,-1
    112a:	c3d8                	sw	a4,4(a5)
    112c:	43d8                	lw	a4,4(a5)
    112e:	c3d8                	sw	a4,4(a5)
    1130:	43d8                	lw	a4,4(a5)
    1132:	40076713          	ori	a4,a4,1024
    1136:	c3d8                	sw	a4,4(a5)
    1138:	43d8                	lw	a4,4(a5)
    113a:	8f75                	and	a4,a4,a3
    113c:	c3d8                	sw	a4,4(a5)
    113e:	43d8                	lw	a4,4(a5)
    1140:	002906b7          	lui	a3,0x290
    1144:	8f55                	or	a4,a4,a3
    1146:	c3d8                	sw	a4,4(a5)
    1148:	4398                	lw	a4,0(a5)
    114a:	010006b7          	lui	a3,0x1000
    114e:	8f55                	or	a4,a4,a3
    1150:	c398                	sw	a4,0(a5)
    1152:	4398                	lw	a4,0(a5)
    1154:	00671693          	slli	a3,a4,0x6
    1158:	fe06dde3          	bgez	a3,1152 <SystemInit+0xbc>
    115c:	43d8                	lw	a4,4(a5)
    115e:	400216b7          	lui	a3,0x40021
    1162:	9b71                	andi	a4,a4,-4
    1164:	c3d8                	sw	a4,4(a5)
    1166:	43d8                	lw	a4,4(a5)
    1168:	00276713          	ori	a4,a4,2
    116c:	c3d8                	sw	a4,4(a5)
    116e:	4721                	li	a4,8
    1170:	42dc                	lw	a5,4(a3)
    1172:	8bb1                	andi	a5,a5,12
    1174:	fee79ee3          	bne	a5,a4,1170 <SystemInit+0xda>
    1178:	0141                	addi	sp,sp,16
    117a:	8082                	ret
    117c:	c602                	sw	zero,12(sp)
    117e:	bf61                	j	1116 <SystemInit+0x80>

00001180 <SystemCoreClockUpdate>:
    1180:	400216b7          	lui	a3,0x40021
    1184:	42dc                	lw	a5,4(a3)
    1186:	4611                	li	a2,4
    1188:	8bb1                	andi	a5,a5,12
    118a:	80818713          	addi	a4,gp,-2040 # 20000088 <SystemCoreClock>
    118e:	00c78563          	beq	a5,a2,1198 <SystemCoreClockUpdate+0x18>
    1192:	4621                	li	a2,8
    1194:	02c78863          	beq	a5,a2,11c4 <SystemCoreClockUpdate+0x44>
    1198:	007a17b7          	lui	a5,0x7a1
    119c:	20078793          	addi	a5,a5,512 # 7a1200 <_data_lma+0x79d754>
    11a0:	c31c                	sw	a5,0(a4)
    11a2:	400217b7          	lui	a5,0x40021
    11a6:	43dc                	lw	a5,4(a5)
    11a8:	8391                	srli	a5,a5,0x4
    11aa:	00f7f693          	andi	a3,a5,15
    11ae:	200007b7          	lui	a5,0x20000
    11b2:	00078793          	mv	a5,a5
    11b6:	97b6                	add	a5,a5,a3
    11b8:	2394                	lbu	a3,0(a5)
    11ba:	431c                	lw	a5,0(a4)
    11bc:	00d7d7b3          	srl	a5,a5,a3
    11c0:	c31c                	sw	a5,0(a4)
    11c2:	8082                	ret
    11c4:	42dc                	lw	a5,4(a3)
    11c6:	42d4                	lw	a3,4(a3)
    11c8:	6641                	lui	a2,0x10
    11ca:	83c9                	srli	a5,a5,0x12
    11cc:	8bbd                	andi	a5,a5,15
    11ce:	8ef1                	and	a3,a3,a2
    11d0:	0789                	addi	a5,a5,2
    11d2:	4645                	li	a2,17
    11d4:	00c79363          	bne	a5,a2,11da <SystemCoreClockUpdate+0x5a>
    11d8:	47c9                	li	a5,18
    11da:	ee81                	bnez	a3,11f2 <SystemCoreClockUpdate+0x72>
    11dc:	400246b7          	lui	a3,0x40024
    11e0:	8006a683          	lw	a3,-2048(a3) # 40023800 <_eusrstack+0x2001e800>
    11e4:	8ac1                	andi	a3,a3,16
    11e6:	ce89                	beqz	a3,1200 <SystemCoreClockUpdate+0x80>
    11e8:	007a16b7          	lui	a3,0x7a1
    11ec:	20068693          	addi	a3,a3,512 # 7a1200 <_data_lma+0x79d754>
    11f0:	a821                	j	1208 <SystemCoreClockUpdate+0x88>
    11f2:	400216b7          	lui	a3,0x40021
    11f6:	42d4                	lw	a3,4(a3)
    11f8:	00e69613          	slli	a2,a3,0xe
    11fc:	fe0656e3          	bgez	a2,11e8 <SystemCoreClockUpdate+0x68>
    1200:	003d16b7          	lui	a3,0x3d1
    1204:	90068693          	addi	a3,a3,-1792 # 3d0900 <_data_lma+0x3cce54>
    1208:	02d787b3          	mul	a5,a5,a3
    120c:	bf51                	j	11a0 <SystemCoreClockUpdate+0x20>

0000120e <ADC1_2_IRQHandler>:
    120e:	a001                	j	120e <ADC1_2_IRQHandler>

00001210 <handle_reset>:
    1210:	1ffff197          	auipc	gp,0x1ffff
    1214:	67018193          	addi	gp,gp,1648 # 20000880 <__global_pointer$>
    1218:	20004117          	auipc	sp,0x20004
    121c:	de810113          	addi	sp,sp,-536 # 20005000 <_eusrstack>
    1220:	00003517          	auipc	a0,0x3
    1224:	88c50513          	addi	a0,a0,-1908 # 3aac <_data_lma>
    1228:	1ffff597          	auipc	a1,0x1ffff
    122c:	dd858593          	addi	a1,a1,-552 # 20000000 <_data_vma>
    1230:	82018613          	addi	a2,gp,-2016 # 200000a0 <_edata>
    1234:	00c5fa63          	bgeu	a1,a2,1248 <handle_reset+0x38>
    1238:	00052283          	lw	t0,0(a0)
    123c:	0055a023          	sw	t0,0(a1)
    1240:	0511                	addi	a0,a0,4
    1242:	0591                	addi	a1,a1,4
    1244:	fec5eae3          	bltu	a1,a2,1238 <handle_reset+0x28>
    1248:	82018513          	addi	a0,gp,-2016 # 200000a0 <_edata>
    124c:	91818593          	addi	a1,gp,-1768 # 20000198 <_ebss>
    1250:	00b57763          	bgeu	a0,a1,125e <handle_reset+0x4e>
    1254:	00052023          	sw	zero,0(a0)
    1258:	0511                	addi	a0,a0,4
    125a:	feb56de3          	bltu	a0,a1,1254 <handle_reset+0x44>
    125e:	42fd                	li	t0,31
    1260:	bc029073          	csrw	0xbc0,t0
    1264:	428d                	li	t0,3
    1266:	80429073          	csrw	0x804,t0
    126a:	08800293          	li	t0,136
    126e:	30029073          	csrw	mstatus,t0
    1272:	fffff297          	auipc	t0,0xfffff
    1276:	d9228293          	addi	t0,t0,-622 # 4 <_einit>
    127a:	0032e293          	ori	t0,t0,3
    127e:	30529073          	csrw	mtvec,t0
    1282:	e15ff0ef          	jal	ra,1096 <SystemInit>
    1286:	00000297          	auipc	t0,0x0
    128a:	df028293          	addi	t0,t0,-528 # 1076 <main>
    128e:	34129073          	csrw	mepc,t0
    1292:	30200073          	mret

00001296 <GPIO_Init>:
    1296:	459c                	lw	a5,8(a1)
    1298:	0107f713          	andi	a4,a5,16
    129c:	00f7f813          	andi	a6,a5,15
    12a0:	c701                	beqz	a4,12a8 <GPIO_Init+0x12>
    12a2:	41d8                	lw	a4,4(a1)
    12a4:	00e86833          	or	a6,a6,a4
    12a8:	40022737          	lui	a4,0x40022
    12ac:	5b14                	lw	a3,48(a4)
    12ae:	0f000737          	lui	a4,0xf000
    12b2:	8f75                	and	a4,a4,a3
    12b4:	eb4d                	bnez	a4,1366 <GPIO_Init+0xd0>
    12b6:	4685                	li	a3,1
    12b8:	84d18423          	sb	a3,-1976(gp) # 200000c8 <MCU_Version>
    12bc:	40011737          	lui	a4,0x40011
    12c0:	00e51563          	bne	a0,a4,12ca <GPIO_Init+0x34>
    12c4:	219a                	lhu	a4,0(a1)
    12c6:	8335                	srli	a4,a4,0xd
    12c8:	a19a                	sh	a4,0(a1)
    12ca:	218e                	lhu	a1,0(a1)
    12cc:	0ff5f713          	andi	a4,a1,255
    12d0:	c339                	beqz	a4,1316 <GPIO_Init+0x80>
    12d2:	4118                	lw	a4,0(a0)
    12d4:	4681                	li	a3,0
    12d6:	4e85                	li	t4,1
    12d8:	4f3d                	li	t5,15
    12da:	02800f93          	li	t6,40
    12de:	04800293          	li	t0,72
    12e2:	4e21                	li	t3,8
    12e4:	00de9633          	sll	a2,t4,a3
    12e8:	00c5f8b3          	and	a7,a1,a2
    12ec:	03161163          	bne	a2,a7,130e <GPIO_Init+0x78>
    12f0:	00269893          	slli	a7,a3,0x2
    12f4:	011f1333          	sll	t1,t5,a7
    12f8:	fff34313          	not	t1,t1
    12fc:	00e37733          	and	a4,t1,a4
    1300:	011818b3          	sll	a7,a6,a7
    1304:	00e8e733          	or	a4,a7,a4
    1308:	07f79763          	bne	a5,t6,1376 <GPIO_Init+0xe0>
    130c:	c950                	sw	a2,20(a0)
    130e:	0685                	addi	a3,a3,1
    1310:	fdc69ae3          	bne	a3,t3,12e4 <GPIO_Init+0x4e>
    1314:	c118                	sw	a4,0(a0)
    1316:	0ff00713          	li	a4,255
    131a:	04b77563          	bgeu	a4,a1,1364 <GPIO_Init+0xce>
    131e:	4154                	lw	a3,4(a0)
    1320:	4621                	li	a2,8
    1322:	4e85                	li	t4,1
    1324:	4f3d                	li	t5,15
    1326:	02800f93          	li	t6,40
    132a:	04800293          	li	t0,72
    132e:	4e41                	li	t3,16
    1330:	00ce98b3          	sll	a7,t4,a2
    1334:	0115f733          	and	a4,a1,a7
    1338:	02e89263          	bne	a7,a4,135c <GPIO_Init+0xc6>
    133c:	00261713          	slli	a4,a2,0x2
    1340:	1701                	addi	a4,a4,-32
    1342:	00ef1333          	sll	t1,t5,a4
    1346:	fff34313          	not	t1,t1
    134a:	00d376b3          	and	a3,t1,a3
    134e:	00e81733          	sll	a4,a6,a4
    1352:	8ed9                	or	a3,a3,a4
    1354:	03f79563          	bne	a5,t6,137e <GPIO_Init+0xe8>
    1358:	01152a23          	sw	a7,20(a0)
    135c:	0605                	addi	a2,a2,1
    135e:	fdc619e3          	bne	a2,t3,1330 <GPIO_Init+0x9a>
    1362:	c154                	sw	a3,4(a0)
    1364:	8082                	ret
    1366:	40011737          	lui	a4,0x40011
    136a:	f6e510e3          	bne	a0,a4,12ca <GPIO_Init+0x34>
    136e:	8481c703          	lbu	a4,-1976(gp) # 200000c8 <MCU_Version>
    1372:	df21                	beqz	a4,12ca <GPIO_Init+0x34>
    1374:	bf81                	j	12c4 <GPIO_Init+0x2e>
    1376:	f8579ce3          	bne	a5,t0,130e <GPIO_Init+0x78>
    137a:	c910                	sw	a2,16(a0)
    137c:	bf49                	j	130e <GPIO_Init+0x78>
    137e:	fc579fe3          	bne	a5,t0,135c <GPIO_Init+0xc6>
    1382:	01152823          	sw	a7,16(a0)
    1386:	bfd9                	j	135c <GPIO_Init+0xc6>

00001388 <GPIO_ReadInputDataBit>:
    1388:	400117b7          	lui	a5,0x40011
    138c:	00f51663          	bne	a0,a5,1398 <GPIO_ReadInputDataBit+0x10>
    1390:	8481c783          	lbu	a5,-1976(gp) # 200000c8 <MCU_Version>
    1394:	c391                	beqz	a5,1398 <GPIO_ReadInputDataBit+0x10>
    1396:	81b5                	srli	a1,a1,0xd
    1398:	4508                	lw	a0,8(a0)
    139a:	8d6d                	and	a0,a0,a1
    139c:	00a03533          	snez	a0,a0
    13a0:	8082                	ret

000013a2 <GPIO_SetBits>:
    13a2:	400117b7          	lui	a5,0x40011
    13a6:	00f51663          	bne	a0,a5,13b2 <GPIO_SetBits+0x10>
    13aa:	8481c783          	lbu	a5,-1976(gp) # 200000c8 <MCU_Version>
    13ae:	c391                	beqz	a5,13b2 <GPIO_SetBits+0x10>
    13b0:	81b5                	srli	a1,a1,0xd
    13b2:	c90c                	sw	a1,16(a0)
    13b4:	8082                	ret

000013b6 <GPIO_ResetBits>:
    13b6:	400117b7          	lui	a5,0x40011
    13ba:	00f51663          	bne	a0,a5,13c6 <GPIO_ResetBits+0x10>
    13be:	8481c783          	lbu	a5,-1976(gp) # 200000c8 <MCU_Version>
    13c2:	c391                	beqz	a5,13c6 <GPIO_ResetBits+0x10>
    13c4:	81b5                	srli	a1,a1,0xd
    13c6:	c94c                	sw	a1,20(a0)
    13c8:	8082                	ret

000013ca <NVIC_PriorityGroupConfig>:
    13ca:	84a1a623          	sw	a0,-1972(gp) # 200000cc <NVIC_Priority_Group>
    13ce:	8082                	ret

000013d0 <NVIC_Init>:
    13d0:	84c1a703          	lw	a4,-1972(gp) # 200000cc <NVIC_Priority_Group>
    13d4:	4785                	li	a5,1
    13d6:	2114                	lbu	a3,0(a0)
    13d8:	02f71063          	bne	a4,a5,13f8 <NVIC_Init+0x28>
    13dc:	311c                	lbu	a5,1(a0)
    13de:	02e79c63          	bne	a5,a4,1416 <NVIC_Init+0x46>
    13e2:	213c                	lbu	a5,2(a0)
    13e4:	0796                	slli	a5,a5,0x5
    13e6:	f807e793          	ori	a5,a5,-128
    13ea:	e000e737          	lui	a4,0xe000e
    13ee:	0ff7f793          	andi	a5,a5,255
    13f2:	9736                	add	a4,a4,a3
    13f4:	40f70023          	sb	a5,1024(a4) # e000e400 <_eusrstack+0xc0009400>
    13f8:	4705                	li	a4,1
    13fa:	0056d793          	srli	a5,a3,0x5
    13fe:	00d71733          	sll	a4,a4,a3
    1402:	4154                	lw	a3,4(a0)
    1404:	ce89                	beqz	a3,141e <NVIC_Init+0x4e>
    1406:	04078793          	addi	a5,a5,64 # 40011040 <_eusrstack+0x2000c040>
    140a:	078a                	slli	a5,a5,0x2
    140c:	e000e6b7          	lui	a3,0xe000e
    1410:	97b6                	add	a5,a5,a3
    1412:	c398                	sw	a4,0(a5)
    1414:	8082                	ret
    1416:	f3ed                	bnez	a5,13f8 <NVIC_Init+0x28>
    1418:	213c                	lbu	a5,2(a0)
    141a:	0796                	slli	a5,a5,0x5
    141c:	b7f9                	j	13ea <NVIC_Init+0x1a>
    141e:	06078793          	addi	a5,a5,96
    1422:	e000e6b7          	lui	a3,0xe000e
    1426:	078a                	slli	a5,a5,0x2
    1428:	97b6                	add	a5,a5,a3
    142a:	c398                	sw	a4,0(a5)
    142c:	0000100f          	fence.i
    1430:	8082                	ret

00001432 <RCC_GetClocksFreq>:
    1432:	40021737          	lui	a4,0x40021
    1436:	435c                	lw	a5,4(a4)
    1438:	4691                	li	a3,4
    143a:	8bb1                	andi	a5,a5,12
    143c:	00d78563          	beq	a5,a3,1446 <RCC_GetClocksFreq+0x14>
    1440:	46a1                	li	a3,8
    1442:	06d78263          	beq	a5,a3,14a6 <RCC_GetClocksFreq+0x74>
    1446:	007a17b7          	lui	a5,0x7a1
    144a:	20078793          	addi	a5,a5,512 # 7a1200 <_data_lma+0x79d754>
    144e:	c11c                	sw	a5,0(a0)
    1450:	40021637          	lui	a2,0x40021
    1454:	425c                	lw	a5,4(a2)
    1456:	20000737          	lui	a4,0x20000
    145a:	01070713          	addi	a4,a4,16 # 20000010 <APBAHBPrescTable>
    145e:	8391                	srli	a5,a5,0x4
    1460:	8bbd                	andi	a5,a5,15
    1462:	97ba                	add	a5,a5,a4
    1464:	2394                	lbu	a3,0(a5)
    1466:	411c                	lw	a5,0(a0)
    1468:	00d7d7b3          	srl	a5,a5,a3
    146c:	c15c                	sw	a5,4(a0)
    146e:	4254                	lw	a3,4(a2)
    1470:	82a1                	srli	a3,a3,0x8
    1472:	8a9d                	andi	a3,a3,7
    1474:	96ba                	add	a3,a3,a4
    1476:	2294                	lbu	a3,0(a3)
    1478:	00d7d6b3          	srl	a3,a5,a3
    147c:	c514                	sw	a3,8(a0)
    147e:	4254                	lw	a3,4(a2)
    1480:	82ad                	srli	a3,a3,0xb
    1482:	8a9d                	andi	a3,a3,7
    1484:	9736                	add	a4,a4,a3
    1486:	2318                	lbu	a4,0(a4)
    1488:	00e7d7b3          	srl	a5,a5,a4
    148c:	c55c                	sw	a5,12(a0)
    148e:	4258                	lw	a4,4(a2)
    1490:	8339                	srli	a4,a4,0xe
    1492:	00377693          	andi	a3,a4,3
    1496:	80c18713          	addi	a4,gp,-2036 # 2000008c <ADCPrescTable>
    149a:	9736                	add	a4,a4,a3
    149c:	2318                	lbu	a4,0(a4)
    149e:	02e7d7b3          	divu	a5,a5,a4
    14a2:	c91c                	sw	a5,16(a0)
    14a4:	8082                	ret
    14a6:	435c                	lw	a5,4(a4)
    14a8:	4358                	lw	a4,4(a4)
    14aa:	66c1                	lui	a3,0x10
    14ac:	83c9                	srli	a5,a5,0x12
    14ae:	8bbd                	andi	a5,a5,15
    14b0:	8f75                	and	a4,a4,a3
    14b2:	0789                	addi	a5,a5,2
    14b4:	46c5                	li	a3,17
    14b6:	00d79363          	bne	a5,a3,14bc <RCC_GetClocksFreq+0x8a>
    14ba:	47c9                	li	a5,18
    14bc:	ef01                	bnez	a4,14d4 <RCC_GetClocksFreq+0xa2>
    14be:	40024737          	lui	a4,0x40024
    14c2:	80072703          	lw	a4,-2048(a4) # 40023800 <_eusrstack+0x2001e800>
    14c6:	8b41                	andi	a4,a4,16
    14c8:	cf09                	beqz	a4,14e2 <RCC_GetClocksFreq+0xb0>
    14ca:	007a1737          	lui	a4,0x7a1
    14ce:	20070713          	addi	a4,a4,512 # 7a1200 <_data_lma+0x79d754>
    14d2:	a821                	j	14ea <RCC_GetClocksFreq+0xb8>
    14d4:	40021737          	lui	a4,0x40021
    14d8:	4358                	lw	a4,4(a4)
    14da:	00e71693          	slli	a3,a4,0xe
    14de:	fe06d6e3          	bgez	a3,14ca <RCC_GetClocksFreq+0x98>
    14e2:	003d1737          	lui	a4,0x3d1
    14e6:	90070713          	addi	a4,a4,-1792 # 3d0900 <_data_lma+0x3cce54>
    14ea:	02e787b3          	mul	a5,a5,a4
    14ee:	b785                	j	144e <RCC_GetClocksFreq+0x1c>

000014f0 <RCC_APB2PeriphClockCmd>:
    14f0:	c599                	beqz	a1,14fe <RCC_APB2PeriphClockCmd+0xe>
    14f2:	40021737          	lui	a4,0x40021
    14f6:	4f1c                	lw	a5,24(a4)
    14f8:	8d5d                	or	a0,a0,a5
    14fa:	cf08                	sw	a0,24(a4)
    14fc:	8082                	ret
    14fe:	400217b7          	lui	a5,0x40021
    1502:	4f98                	lw	a4,24(a5)
    1504:	fff54513          	not	a0,a0
    1508:	8d79                	and	a0,a0,a4
    150a:	cf88                	sw	a0,24(a5)
    150c:	8082                	ret

0000150e <RCC_APB1PeriphClockCmd>:
    150e:	c599                	beqz	a1,151c <RCC_APB1PeriphClockCmd+0xe>
    1510:	40021737          	lui	a4,0x40021
    1514:	4f5c                	lw	a5,28(a4)
    1516:	8d5d                	or	a0,a0,a5
    1518:	cf48                	sw	a0,28(a4)
    151a:	8082                	ret
    151c:	400217b7          	lui	a5,0x40021
    1520:	4fd8                	lw	a4,28(a5)
    1522:	fff54513          	not	a0,a0
    1526:	8d79                	and	a0,a0,a4
    1528:	cfc8                	sw	a0,28(a5)
    152a:	8082                	ret

0000152c <TIM_TimeBaseInit>:
    152c:	211e                	lhu	a5,0(a0)
    152e:	40013737          	lui	a4,0x40013
    1532:	c0070713          	addi	a4,a4,-1024 # 40012c00 <_eusrstack+0x2000dc00>
    1536:	07c2                	slli	a5,a5,0x10
    1538:	83c1                	srli	a5,a5,0x10
    153a:	02e50063          	beq	a0,a4,155a <TIM_TimeBaseInit+0x2e>
    153e:	40000737          	lui	a4,0x40000
    1542:	00e50c63          	beq	a0,a4,155a <TIM_TimeBaseInit+0x2e>
    1546:	40070713          	addi	a4,a4,1024 # 40000400 <_eusrstack+0x1fffb400>
    154a:	00e50863          	beq	a0,a4,155a <TIM_TimeBaseInit+0x2e>
    154e:	40001737          	lui	a4,0x40001
    1552:	80070713          	addi	a4,a4,-2048 # 40000800 <_eusrstack+0x1fffb800>
    1556:	00e51663          	bne	a0,a4,1562 <TIM_TimeBaseInit+0x36>
    155a:	21ba                	lhu	a4,2(a1)
    155c:	f8f7f793          	andi	a5,a5,-113
    1560:	8fd9                	or	a5,a5,a4
    1562:	21fa                	lhu	a4,6(a1)
    1564:	cff7f793          	andi	a5,a5,-769
    1568:	07c2                	slli	a5,a5,0x10
    156a:	83c1                	srli	a5,a5,0x10
    156c:	8fd9                	or	a5,a5,a4
    156e:	a11e                	sh	a5,0(a0)
    1570:	21de                	lhu	a5,4(a1)
    1572:	b55e                	sh	a5,44(a0)
    1574:	219e                	lhu	a5,0(a1)
    1576:	b51e                	sh	a5,40(a0)
    1578:	400137b7          	lui	a5,0x40013
    157c:	c0078793          	addi	a5,a5,-1024 # 40012c00 <_eusrstack+0x2000dc00>
    1580:	00f51463          	bne	a0,a5,1588 <TIM_TimeBaseInit+0x5c>
    1584:	259c                	lbu	a5,8(a1)
    1586:	b91e                	sh	a5,48(a0)
    1588:	4785                	li	a5,1
    158a:	a95e                	sh	a5,20(a0)
    158c:	8082                	ret

0000158e <TIM_OC1Init>:
    158e:	311e                	lhu	a5,32(a0)
    1590:	2192                	lhu	a2,0(a1)
    1592:	0025d803          	lhu	a6,2(a1)
    1596:	07c2                	slli	a5,a5,0x10
    1598:	83c1                	srli	a5,a5,0x10
    159a:	9bf9                	andi	a5,a5,-2
    159c:	07c2                	slli	a5,a5,0x10
    159e:	83c1                	srli	a5,a5,0x10
    15a0:	b11e                	sh	a5,32(a0)
    15a2:	311e                	lhu	a5,32(a0)
    15a4:	2156                	lhu	a3,4(a0)
    15a6:	2d1a                	lhu	a4,24(a0)
    15a8:	07c2                	slli	a5,a5,0x10
    15aa:	83c1                	srli	a5,a5,0x10
    15ac:	0742                	slli	a4,a4,0x10
    15ae:	8341                	srli	a4,a4,0x10
    15b0:	f8c77713          	andi	a4,a4,-116
    15b4:	8f51                	or	a4,a4,a2
    15b6:	2592                	lhu	a2,8(a1)
    15b8:	9bf5                	andi	a5,a5,-3
    15ba:	06c2                	slli	a3,a3,0x10
    15bc:	01066633          	or	a2,a2,a6
    15c0:	8fd1                	or	a5,a5,a2
    15c2:	40013637          	lui	a2,0x40013
    15c6:	c0060613          	addi	a2,a2,-1024 # 40012c00 <_eusrstack+0x2000dc00>
    15ca:	82c1                	srli	a3,a3,0x10
    15cc:	02c51063          	bne	a0,a2,15ec <TIM_OC1Init+0x5e>
    15d0:	25b2                	lhu	a2,10(a1)
    15d2:	9bdd                	andi	a5,a5,-9
    15d4:	00e5d803          	lhu	a6,14(a1)
    15d8:	8fd1                	or	a5,a5,a2
    15da:	21d2                	lhu	a2,4(a1)
    15dc:	9bed                	andi	a5,a5,-5
    15de:	cff6f693          	andi	a3,a3,-769
    15e2:	8fd1                	or	a5,a5,a2
    15e4:	25d2                	lhu	a2,12(a1)
    15e6:	01066633          	or	a2,a2,a6
    15ea:	8ed1                	or	a3,a3,a2
    15ec:	a156                	sh	a3,4(a0)
    15ee:	ad1a                	sh	a4,24(a0)
    15f0:	21fa                	lhu	a4,6(a1)
    15f2:	b95a                	sh	a4,52(a0)
    15f4:	b11e                	sh	a5,32(a0)
    15f6:	8082                	ret

000015f8 <TIM_Cmd>:
    15f8:	211e                	lhu	a5,0(a0)
    15fa:	c589                	beqz	a1,1604 <TIM_Cmd+0xc>
    15fc:	0017e793          	ori	a5,a5,1
    1600:	a11e                	sh	a5,0(a0)
    1602:	8082                	ret
    1604:	07c2                	slli	a5,a5,0x10
    1606:	83c1                	srli	a5,a5,0x10
    1608:	9bf9                	andi	a5,a5,-2
    160a:	07c2                	slli	a5,a5,0x10
    160c:	83c1                	srli	a5,a5,0x10
    160e:	bfcd                	j	1600 <TIM_Cmd+0x8>

00001610 <TIM_ARRPreloadConfig>:
    1610:	211e                	lhu	a5,0(a0)
    1612:	c589                	beqz	a1,161c <TIM_ARRPreloadConfig+0xc>
    1614:	0807e793          	ori	a5,a5,128
    1618:	a11e                	sh	a5,0(a0)
    161a:	8082                	ret
    161c:	07c2                	slli	a5,a5,0x10
    161e:	83c1                	srli	a5,a5,0x10
    1620:	f7f7f793          	andi	a5,a5,-129
    1624:	07c2                	slli	a5,a5,0x10
    1626:	83c1                	srli	a5,a5,0x10
    1628:	bfc5                	j	1618 <TIM_ARRPreloadConfig+0x8>

0000162a <TIM_OC1PreloadConfig>:
    162a:	2d1e                	lhu	a5,24(a0)
    162c:	07c2                	slli	a5,a5,0x10
    162e:	83c1                	srli	a5,a5,0x10
    1630:	9bdd                	andi	a5,a5,-9
    1632:	8ddd                	or	a1,a1,a5
    1634:	ad0e                	sh	a1,24(a0)
    1636:	8082                	ret

00001638 <TIM_SetCompare1>:
    1638:	b94e                	sh	a1,52(a0)
    163a:	8082                	ret

0000163c <USART_Init>:
    163c:	af5fe2ef          	jal	t0,130 <__riscv_save_0>
    1640:	291a                	lhu	a4,16(a0)
    1642:	77f5                	lui	a5,0xffffd
    1644:	17fd                	addi	a5,a5,-1
    1646:	8ff9                	and	a5,a5,a4
    1648:	21fa                	lhu	a4,6(a1)
    164a:	1101                	addi	sp,sp,-32
    164c:	842a                	mv	s0,a0
    164e:	8fd9                	or	a5,a5,a4
    1650:	a91e                	sh	a5,16(a0)
    1652:	259a                	lhu	a4,8(a1)
    1654:	21de                	lhu	a5,4(a1)
    1656:	2556                	lhu	a3,12(a0)
    1658:	84ae                	mv	s1,a1
    165a:	8fd9                	or	a5,a5,a4
    165c:	25ba                	lhu	a4,10(a1)
    165e:	8fd9                	or	a5,a5,a4
    1660:	777d                	lui	a4,0xfffff
    1662:	9f370713          	addi	a4,a4,-1549 # ffffe9f3 <_eusrstack+0xdfff99f3>
    1666:	8f75                	and	a4,a4,a3
    1668:	8fd9                	or	a5,a5,a4
    166a:	a55e                	sh	a5,12(a0)
    166c:	295e                	lhu	a5,20(a0)
    166e:	25da                	lhu	a4,12(a1)
    1670:	07c2                	slli	a5,a5,0x10
    1672:	83c1                	srli	a5,a5,0x10
    1674:	cff7f793          	andi	a5,a5,-769
    1678:	8fd9                	or	a5,a5,a4
    167a:	a95e                	sh	a5,20(a0)
    167c:	0068                	addi	a0,sp,12
    167e:	db5ff0ef          	jal	ra,1432 <RCC_GetClocksFreq>
    1682:	400147b7          	lui	a5,0x40014
    1686:	80078793          	addi	a5,a5,-2048 # 40013800 <_eusrstack+0x2000e800>
    168a:	04f41663          	bne	s0,a5,16d6 <USART_Init+0x9a>
    168e:	47e2                	lw	a5,24(sp)
    1690:	4565                	li	a0,25
    1692:	02f535b3          	mulhu	a1,a0,a5
    1696:	4090                	lw	a2,0(s1)
    1698:	4681                	li	a3,0
    169a:	060a                	slli	a2,a2,0x2
    169c:	02f50533          	mul	a0,a0,a5
    16a0:	2525                	jal	1cc8 <__udivdi3>
    16a2:	06400693          	li	a3,100
    16a6:	02d55733          	divu	a4,a0,a3
    16aa:	0712                	slli	a4,a4,0x4
    16ac:	00475793          	srli	a5,a4,0x4
    16b0:	02f687b3          	mul	a5,a3,a5
    16b4:	8d1d                	sub	a0,a0,a5
    16b6:	00451793          	slli	a5,a0,0x4
    16ba:	03278513          	addi	a0,a5,50
    16be:	63f00793          	li	a5,1599
    16c2:	00a7fc63          	bgeu	a5,a0,16da <USART_Init+0x9e>
    16c6:	01070513          	addi	a0,a4,16
    16ca:	0542                	slli	a0,a0,0x10
    16cc:	8141                	srli	a0,a0,0x10
    16ce:	a40a                	sh	a0,8(s0)
    16d0:	6105                	addi	sp,sp,32
    16d2:	a83fe06f          	j	154 <__riscv_restore_0>
    16d6:	47d2                	lw	a5,20(sp)
    16d8:	bf65                	j	1690 <USART_Init+0x54>
    16da:	02d55533          	divu	a0,a0,a3
    16de:	8d59                	or	a0,a0,a4
    16e0:	b7ed                	j	16ca <USART_Init+0x8e>

000016e2 <USART_Cmd>:
    16e2:	c591                	beqz	a1,16ee <USART_Cmd+0xc>
    16e4:	255e                	lhu	a5,12(a0)
    16e6:	6709                	lui	a4,0x2
    16e8:	8fd9                	or	a5,a5,a4
    16ea:	a55e                	sh	a5,12(a0)
    16ec:	8082                	ret
    16ee:	255a                	lhu	a4,12(a0)
    16f0:	77f9                	lui	a5,0xffffe
    16f2:	17fd                	addi	a5,a5,-1
    16f4:	8ff9                	and	a5,a5,a4
    16f6:	bfd5                	j	16ea <USART_Cmd+0x8>

000016f8 <USART_ITConfig>:
    16f8:	0ff5f713          	andi	a4,a1,255
    16fc:	4785                	li	a5,1
    16fe:	8315                	srli	a4,a4,0x5
    1700:	00b795b3          	sll	a1,a5,a1
    1704:	00f71963          	bne	a4,a5,1716 <USART_ITConfig+0x1e>
    1708:	00c50793          	addi	a5,a0,12
    170c:	4398                	lw	a4,0(a5)
    170e:	ce01                	beqz	a2,1726 <USART_ITConfig+0x2e>
    1710:	8dd9                	or	a1,a1,a4
    1712:	c38c                	sw	a1,0(a5)
    1714:	8082                	ret
    1716:	4689                	li	a3,2
    1718:	01450793          	addi	a5,a0,20
    171c:	fed718e3          	bne	a4,a3,170c <USART_ITConfig+0x14>
    1720:	01050793          	addi	a5,a0,16
    1724:	b7e5                	j	170c <USART_ITConfig+0x14>
    1726:	fff5c593          	not	a1,a1
    172a:	8df9                	and	a1,a1,a4
    172c:	b7dd                	j	1712 <USART_ITConfig+0x1a>

0000172e <USART_SendData>:
    172e:	1ff5f593          	andi	a1,a1,511
    1732:	a14e                	sh	a1,4(a0)
    1734:	8082                	ret

00001736 <USART_ReceiveData>:
    1736:	214a                	lhu	a0,4(a0)
    1738:	1ff57513          	andi	a0,a0,511
    173c:	8082                	ret

0000173e <USART_GetFlagStatus>:
    173e:	210a                	lhu	a0,0(a0)
    1740:	8d6d                	and	a0,a0,a1
    1742:	00a03533          	snez	a0,a0
    1746:	8082                	ret

00001748 <USART_ClearFlag>:
    1748:	fff5c593          	not	a1,a1
    174c:	05c2                	slli	a1,a1,0x10
    174e:	81c1                	srli	a1,a1,0x10
    1750:	a10e                	sh	a1,0(a0)
    1752:	8082                	ret

00001754 <USART_GetITStatus>:
    1754:	0ff5f713          	andi	a4,a1,255
    1758:	4685                	li	a3,1
    175a:	8315                	srli	a4,a4,0x5
    175c:	00b697b3          	sll	a5,a3,a1
    1760:	02d71163          	bne	a4,a3,1782 <USART_GetITStatus+0x2e>
    1764:	255a                	lhu	a4,12(a0)
    1766:	8ff9                	and	a5,a5,a4
    1768:	211a                	lhu	a4,0(a0)
    176a:	4501                	li	a0,0
    176c:	0742                	slli	a4,a4,0x10
    176e:	8341                	srli	a4,a4,0x10
    1770:	cb81                	beqz	a5,1780 <USART_GetITStatus+0x2c>
    1772:	4505                	li	a0,1
    1774:	81a1                	srli	a1,a1,0x8
    1776:	00b515b3          	sll	a1,a0,a1
    177a:	8f6d                	and	a4,a4,a1
    177c:	00e03533          	snez	a0,a4
    1780:	8082                	ret
    1782:	4689                	li	a3,2
    1784:	00d71463          	bne	a4,a3,178c <USART_GetITStatus+0x38>
    1788:	291a                	lhu	a4,16(a0)
    178a:	bff1                	j	1766 <USART_GetITStatus+0x12>
    178c:	295a                	lhu	a4,20(a0)
    178e:	bfe1                	j	1766 <USART_GetITStatus+0x12>

00001790 <USART_ClearITPendingBit>:
    1790:	81a1                	srli	a1,a1,0x8
    1792:	4785                	li	a5,1
    1794:	00b797b3          	sll	a5,a5,a1
    1798:	fff7c793          	not	a5,a5
    179c:	07c2                	slli	a5,a5,0x10
    179e:	83c1                	srli	a5,a5,0x10
    17a0:	a11e                	sh	a5,0(a0)
    17a2:	8082                	ret

000017a4 <Delay_Init>:
    17a4:	8081a783          	lw	a5,-2040(gp) # 20000088 <SystemCoreClock>
    17a8:	007a1737          	lui	a4,0x7a1
    17ac:	20070713          	addi	a4,a4,512 # 7a1200 <_data_lma+0x79d754>
    17b0:	02e7d7b3          	divu	a5,a5,a4
    17b4:	0ff7f793          	andi	a5,a5,255
    17b8:	84f18923          	sb	a5,-1966(gp) # 200000d2 <p_us>
    17bc:	3e800713          	li	a4,1000
    17c0:	02e787b3          	mul	a5,a5,a4
    17c4:	84f19823          	sh	a5,-1968(gp) # 200000d0 <p_ms>
    17c8:	8082                	ret

000017ca <Delay_Us>:
    17ca:	e000f7b7          	lui	a5,0xe000f
    17ce:	43d8                	lw	a4,4(a5)
    17d0:	4681                	li	a3,0
    17d2:	9b79                	andi	a4,a4,-2
    17d4:	c3d8                	sw	a4,4(a5)
    17d6:	8521c703          	lbu	a4,-1966(gp) # 200000d2 <p_us>
    17da:	02a70633          	mul	a2,a4,a0
    17de:	cb90                	sw	a2,16(a5)
    17e0:	cbd4                	sw	a3,20(a5)
    17e2:	4398                	lw	a4,0(a5)
    17e4:	01076713          	ori	a4,a4,16
    17e8:	c398                	sw	a4,0(a5)
    17ea:	4398                	lw	a4,0(a5)
    17ec:	02176713          	ori	a4,a4,33
    17f0:	c398                	sw	a4,0(a5)
    17f2:	43d8                	lw	a4,4(a5)
    17f4:	8b05                	andi	a4,a4,1
    17f6:	df75                	beqz	a4,17f2 <Delay_Us+0x28>
    17f8:	4398                	lw	a4,0(a5)
    17fa:	9b79                	andi	a4,a4,-2
    17fc:	c398                	sw	a4,0(a5)
    17fe:	8082                	ret

00001800 <Delay_Ms>:
    1800:	e000f7b7          	lui	a5,0xe000f
    1804:	43d8                	lw	a4,4(a5)
    1806:	4681                	li	a3,0
    1808:	9b79                	andi	a4,a4,-2
    180a:	c3d8                	sw	a4,4(a5)
    180c:	8501d703          	lhu	a4,-1968(gp) # 200000d0 <p_ms>
    1810:	02a70633          	mul	a2,a4,a0
    1814:	cb90                	sw	a2,16(a5)
    1816:	cbd4                	sw	a3,20(a5)
    1818:	4398                	lw	a4,0(a5)
    181a:	01076713          	ori	a4,a4,16
    181e:	c398                	sw	a4,0(a5)
    1820:	4398                	lw	a4,0(a5)
    1822:	02176713          	ori	a4,a4,33
    1826:	c398                	sw	a4,0(a5)
    1828:	43d8                	lw	a4,4(a5)
    182a:	8b05                	andi	a4,a4,1
    182c:	df75                	beqz	a4,1828 <Delay_Ms+0x28>
    182e:	4398                	lw	a4,0(a5)
    1830:	9b79                	andi	a4,a4,-2
    1832:	c398                	sw	a4,0(a5)
    1834:	8082                	ret

00001836 <USART_Printf_Init>:
    1836:	8fbfe2ef          	jal	t0,130 <__riscv_save_0>
    183a:	842a                	mv	s0,a0
    183c:	6511                	lui	a0,0x4
    183e:	1101                	addi	sp,sp,-32
    1840:	4585                	li	a1,1
    1842:	0511                	addi	a0,a0,4
    1844:	cadff0ef          	jal	ra,14f0 <RCC_APB2PeriphClockCmd>
    1848:	20000793          	li	a5,512
    184c:	827c                	sh	a5,4(sp)
    184e:	40011537          	lui	a0,0x40011
    1852:	478d                	li	a5,3
    1854:	c43e                	sw	a5,8(sp)
    1856:	004c                	addi	a1,sp,4
    1858:	47e1                	li	a5,24
    185a:	80050513          	addi	a0,a0,-2048 # 40010800 <_eusrstack+0x2000b800>
    185e:	c63e                	sw	a5,12(sp)
    1860:	a37ff0ef          	jal	ra,1296 <GPIO_Init>
    1864:	c822                	sw	s0,16(sp)
    1866:	40014437          	lui	s0,0x40014
    186a:	000807b7          	lui	a5,0x80
    186e:	080c                	addi	a1,sp,16
    1870:	80040513          	addi	a0,s0,-2048 # 40013800 <_eusrstack+0x2000e800>
    1874:	cc3e                	sw	a5,24(sp)
    1876:	ca02                	sw	zero,20(sp)
    1878:	00011e23          	sh	zero,28(sp)
    187c:	dc1ff0ef          	jal	ra,163c <USART_Init>
    1880:	4585                	li	a1,1
    1882:	80040513          	addi	a0,s0,-2048
    1886:	e5dff0ef          	jal	ra,16e2 <USART_Cmd>
    188a:	6105                	addi	sp,sp,32
    188c:	8c9fe06f          	j	154 <__riscv_restore_0>

00001890 <_write>:
    1890:	887fe2ef          	jal	t0,116 <__riscv_save_4>
    1894:	400144b7          	lui	s1,0x40014
    1898:	89ae                	mv	s3,a1
    189a:	8932                	mv	s2,a2
    189c:	4401                	li	s0,0
    189e:	80048493          	addi	s1,s1,-2048 # 40013800 <_eusrstack+0x2000e800>
    18a2:	01244563          	blt	s0,s2,18ac <_write+0x1c>
    18a6:	854a                	mv	a0,s2
    18a8:	8a3fe06f          	j	14a <__riscv_restore_4>
    18ac:	04000593          	li	a1,64
    18b0:	8526                	mv	a0,s1
    18b2:	e8dff0ef          	jal	ra,173e <USART_GetFlagStatus>
    18b6:	d97d                	beqz	a0,18ac <_write+0x1c>
    18b8:	008987b3          	add	a5,s3,s0
    18bc:	00078583          	lb	a1,0(a5) # 80000 <_data_lma+0x7c554>
    18c0:	8526                	mv	a0,s1
    18c2:	0405                	addi	s0,s0,1
    18c4:	05c2                	slli	a1,a1,0x10
    18c6:	81c1                	srli	a1,a1,0x10
    18c8:	e67ff0ef          	jal	ra,172e <USART_SendData>
    18cc:	bfd9                	j	18a2 <_write+0x12>

000018ce <_sbrk>:
    18ce:	81018713          	addi	a4,gp,-2032 # 20000090 <curbrk.4672>
    18d2:	431c                	lw	a5,0(a4)
    18d4:	91818693          	addi	a3,gp,-1768 # 20000198 <_ebss>
    18d8:	953e                	add	a0,a0,a5
    18da:	00d56b63          	bltu	a0,a3,18f0 <_sbrk+0x22>
    18de:	200056b7          	lui	a3,0x20005
    18e2:	80068693          	addi	a3,a3,-2048 # 20004800 <_heap_end>
    18e6:	00a6e563          	bltu	a3,a0,18f0 <_sbrk+0x22>
    18ea:	c308                	sw	a0,0(a4)
    18ec:	853e                	mv	a0,a5
    18ee:	8082                	ret
    18f0:	57fd                	li	a5,-1
    18f2:	bfed                	j	18ec <_sbrk+0x1e>

000018f4 <__divdi3>:
    18f4:	4801                	li	a6,0
    18f6:	0e05c563          	bltz	a1,19e0 <__divdi3+0xec>
    18fa:	0006db63          	bgez	a3,1910 <__divdi3+0x1c>
    18fe:	40c00633          	neg	a2,a2
    1902:	00c037b3          	snez	a5,a2
    1906:	40d006b3          	neg	a3,a3
    190a:	fff84813          	not	a6,a6
    190e:	8e9d                	sub	a3,a3,a5
    1910:	87b6                	mv	a5,a3
    1912:	8332                	mv	t1,a2
    1914:	8eaa                	mv	t4,a0
    1916:	88ae                	mv	a7,a1
    1918:	16069f63          	bnez	a3,1a96 <__divdi3+0x1a2>
    191c:	0cc5fb63          	bgeu	a1,a2,19f2 <__divdi3+0xfe>
    1920:	6741                	lui	a4,0x10
    1922:	1ce66f63          	bltu	a2,a4,1b00 <__divdi3+0x20c>
    1926:	010007b7          	lui	a5,0x1000
    192a:	36f66363          	bltu	a2,a5,1c90 <__divdi3+0x39c>
    192e:	01865693          	srli	a3,a2,0x18
    1932:	47e1                	li	a5,24
    1934:	00002717          	auipc	a4,0x2
    1938:	fdc70713          	addi	a4,a4,-36 # 3910 <__clz_tab>
    193c:	9736                	add	a4,a4,a3
    193e:	2318                	lbu	a4,0(a4)
    1940:	97ba                	add	a5,a5,a4
    1942:	02000713          	li	a4,32
    1946:	8f1d                	sub	a4,a4,a5
    1948:	cb19                	beqz	a4,195e <__divdi3+0x6a>
    194a:	00e595b3          	sll	a1,a1,a4
    194e:	00f557b3          	srl	a5,a0,a5
    1952:	00e61333          	sll	t1,a2,a4
    1956:	00b7e8b3          	or	a7,a5,a1
    195a:	00e51eb3          	sll	t4,a0,a4
    195e:	01035613          	srli	a2,t1,0x10
    1962:	02c8d7b3          	divu	a5,a7,a2
    1966:	01031693          	slli	a3,t1,0x10
    196a:	82c1                	srli	a3,a3,0x10
    196c:	010ed713          	srli	a4,t4,0x10
    1970:	02c8f5b3          	remu	a1,a7,a2
    1974:	02f68533          	mul	a0,a3,a5
    1978:	05c2                	slli	a1,a1,0x10
    197a:	00e5e8b3          	or	a7,a1,a4
    197e:	00a8fa63          	bgeu	a7,a0,1992 <__divdi3+0x9e>
    1982:	989a                	add	a7,a7,t1
    1984:	fff78713          	addi	a4,a5,-1 # ffffff <_data_lma+0xffc553>
    1988:	0068e463          	bltu	a7,t1,1990 <__divdi3+0x9c>
    198c:	32a8e863          	bltu	a7,a0,1cbc <__divdi3+0x3c8>
    1990:	87ba                	mv	a5,a4
    1992:	40a888b3          	sub	a7,a7,a0
    1996:	02c8d5b3          	divu	a1,a7,a2
    199a:	0ec2                	slli	t4,t4,0x10
    199c:	010ede93          	srli	t4,t4,0x10
    19a0:	02c8f8b3          	remu	a7,a7,a2
    19a4:	02b686b3          	mul	a3,a3,a1
    19a8:	08c2                	slli	a7,a7,0x10
    19aa:	01d8e8b3          	or	a7,a7,t4
    19ae:	00d8fb63          	bgeu	a7,a3,19c4 <__divdi3+0xd0>
    19b2:	989a                	add	a7,a7,t1
    19b4:	fff58713          	addi	a4,a1,-1
    19b8:	0068e563          	bltu	a7,t1,19c2 <__divdi3+0xce>
    19bc:	15f9                	addi	a1,a1,-2
    19be:	00d8e363          	bltu	a7,a3,19c4 <__divdi3+0xd0>
    19c2:	85ba                	mv	a1,a4
    19c4:	01079513          	slli	a0,a5,0x10
    19c8:	8d4d                	or	a0,a0,a1
    19ca:	4581                	li	a1,0
    19cc:	00080963          	beqz	a6,19de <__divdi3+0xea>
    19d0:	40a00533          	neg	a0,a0
    19d4:	00a037b3          	snez	a5,a0
    19d8:	40b005b3          	neg	a1,a1
    19dc:	8d9d                	sub	a1,a1,a5
    19de:	8082                	ret
    19e0:	40a00533          	neg	a0,a0
    19e4:	00a037b3          	snez	a5,a0
    19e8:	40b005b3          	neg	a1,a1
    19ec:	8d9d                	sub	a1,a1,a5
    19ee:	587d                	li	a6,-1
    19f0:	b729                	j	18fa <__divdi3+0x6>
    19f2:	e601                	bnez	a2,19fa <__divdi3+0x106>
    19f4:	4305                	li	t1,1
    19f6:	02d35333          	divu	t1,t1,a3
    19fa:	6741                	lui	a4,0x10
    19fc:	0ee36963          	bltu	t1,a4,1aee <__divdi3+0x1fa>
    1a00:	010007b7          	lui	a5,0x1000
    1a04:	28f36a63          	bltu	t1,a5,1c98 <__divdi3+0x3a4>
    1a08:	01835693          	srli	a3,t1,0x18
    1a0c:	47e1                	li	a5,24
    1a0e:	00002717          	auipc	a4,0x2
    1a12:	f0270713          	addi	a4,a4,-254 # 3910 <__clz_tab>
    1a16:	9736                	add	a4,a4,a3
    1a18:	2318                	lbu	a4,0(a4)
    1a1a:	97ba                	add	a5,a5,a4
    1a1c:	02000713          	li	a4,32
    1a20:	8f1d                	sub	a4,a4,a5
    1a22:	eb65                	bnez	a4,1b12 <__divdi3+0x21e>
    1a24:	01031893          	slli	a7,t1,0x10
    1a28:	406586b3          	sub	a3,a1,t1
    1a2c:	01035f13          	srli	t5,t1,0x10
    1a30:	0108d893          	srli	a7,a7,0x10
    1a34:	4585                	li	a1,1
    1a36:	010ed713          	srli	a4,t4,0x10
    1a3a:	03e6d7b3          	divu	a5,a3,t5
    1a3e:	03e6f6b3          	remu	a3,a3,t5
    1a42:	03178633          	mul	a2,a5,a7
    1a46:	06c2                	slli	a3,a3,0x10
    1a48:	8f55                	or	a4,a4,a3
    1a4a:	00c77a63          	bgeu	a4,a2,1a5e <__divdi3+0x16a>
    1a4e:	971a                	add	a4,a4,t1
    1a50:	fff78693          	addi	a3,a5,-1 # ffffff <_data_lma+0xffc553>
    1a54:	00676463          	bltu	a4,t1,1a5c <__divdi3+0x168>
    1a58:	26c76563          	bltu	a4,a2,1cc2 <__divdi3+0x3ce>
    1a5c:	87b6                	mv	a5,a3
    1a5e:	8f11                	sub	a4,a4,a2
    1a60:	03e756b3          	divu	a3,a4,t5
    1a64:	0ec2                	slli	t4,t4,0x10
    1a66:	010ede93          	srli	t4,t4,0x10
    1a6a:	03e77733          	remu	a4,a4,t5
    1a6e:	031688b3          	mul	a7,a3,a7
    1a72:	0742                	slli	a4,a4,0x10
    1a74:	01d76733          	or	a4,a4,t4
    1a78:	01177b63          	bgeu	a4,a7,1a8e <__divdi3+0x19a>
    1a7c:	971a                	add	a4,a4,t1
    1a7e:	fff68613          	addi	a2,a3,-1
    1a82:	00676563          	bltu	a4,t1,1a8c <__divdi3+0x198>
    1a86:	16f9                	addi	a3,a3,-2
    1a88:	01176363          	bltu	a4,a7,1a8e <__divdi3+0x19a>
    1a8c:	86b2                	mv	a3,a2
    1a8e:	01079513          	slli	a0,a5,0x10
    1a92:	8d55                	or	a0,a0,a3
    1a94:	bf25                	j	19cc <__divdi3+0xd8>
    1a96:	04d5e163          	bltu	a1,a3,1ad8 <__divdi3+0x1e4>
    1a9a:	67c1                	lui	a5,0x10
    1a9c:	04f6e163          	bltu	a3,a5,1ade <__divdi3+0x1ea>
    1aa0:	010007b7          	lui	a5,0x1000
    1aa4:	1ef6e263          	bltu	a3,a5,1c88 <__divdi3+0x394>
    1aa8:	0186d893          	srli	a7,a3,0x18
    1aac:	4761                	li	a4,24
    1aae:	00002797          	auipc	a5,0x2
    1ab2:	e6278793          	addi	a5,a5,-414 # 3910 <__clz_tab>
    1ab6:	97c6                	add	a5,a5,a7
    1ab8:	0007c303          	lbu	t1,0(a5)
    1abc:	02000793          	li	a5,32
    1ac0:	933a                	add	t1,t1,a4
    1ac2:	406787b3          	sub	a5,a5,t1
    1ac6:	ebe9                	bnez	a5,1b98 <__divdi3+0x2a4>
    1ac8:	1cb6ec63          	bltu	a3,a1,1ca0 <__divdi3+0x3ac>
    1acc:	00c53533          	sltu	a0,a0,a2
    1ad0:	00154513          	xori	a0,a0,1
    1ad4:	4581                	li	a1,0
    1ad6:	bddd                	j	19cc <__divdi3+0xd8>
    1ad8:	4581                	li	a1,0
    1ada:	4501                	li	a0,0
    1adc:	bdc5                	j	19cc <__divdi3+0xd8>
    1ade:	0ff00793          	li	a5,255
    1ae2:	1cd7f263          	bgeu	a5,a3,1ca6 <__divdi3+0x3b2>
    1ae6:	0086d893          	srli	a7,a3,0x8
    1aea:	4721                	li	a4,8
    1aec:	b7c9                	j	1aae <__divdi3+0x1ba>
    1aee:	0ff00713          	li	a4,255
    1af2:	869a                	mv	a3,t1
    1af4:	f0677de3          	bgeu	a4,t1,1a0e <__divdi3+0x11a>
    1af8:	00835693          	srli	a3,t1,0x8
    1afc:	47a1                	li	a5,8
    1afe:	bf01                	j	1a0e <__divdi3+0x11a>
    1b00:	0ff00713          	li	a4,255
    1b04:	86b2                	mv	a3,a2
    1b06:	e2c777e3          	bgeu	a4,a2,1934 <__divdi3+0x40>
    1b0a:	00865693          	srli	a3,a2,0x8
    1b0e:	47a1                	li	a5,8
    1b10:	b515                	j	1934 <__divdi3+0x40>
    1b12:	00e31333          	sll	t1,t1,a4
    1b16:	00f5d633          	srl	a2,a1,a5
    1b1a:	01035f13          	srli	t5,t1,0x10
    1b1e:	03e65e33          	divu	t3,a2,t5
    1b22:	00e596b3          	sll	a3,a1,a4
    1b26:	00f557b3          	srl	a5,a0,a5
    1b2a:	8edd                	or	a3,a3,a5
    1b2c:	01031893          	slli	a7,t1,0x10
    1b30:	0108d893          	srli	a7,a7,0x10
    1b34:	00e51eb3          	sll	t4,a0,a4
    1b38:	0106d593          	srli	a1,a3,0x10
    1b3c:	03e677b3          	remu	a5,a2,t5
    1b40:	03c88733          	mul	a4,a7,t3
    1b44:	07c2                	slli	a5,a5,0x10
    1b46:	8fcd                	or	a5,a5,a1
    1b48:	00e7fb63          	bgeu	a5,a4,1b5e <__divdi3+0x26a>
    1b4c:	979a                	add	a5,a5,t1
    1b4e:	fffe0613          	addi	a2,t3,-1
    1b52:	1667e363          	bltu	a5,t1,1cb8 <__divdi3+0x3c4>
    1b56:	16e7f163          	bgeu	a5,a4,1cb8 <__divdi3+0x3c4>
    1b5a:	1e79                	addi	t3,t3,-2
    1b5c:	979a                	add	a5,a5,t1
    1b5e:	8f99                	sub	a5,a5,a4
    1b60:	03e7d633          	divu	a2,a5,t5
    1b64:	01069713          	slli	a4,a3,0x10
    1b68:	8341                	srli	a4,a4,0x10
    1b6a:	03e7f7b3          	remu	a5,a5,t5
    1b6e:	02c88533          	mul	a0,a7,a2
    1b72:	01079693          	slli	a3,a5,0x10
    1b76:	8ed9                	or	a3,a3,a4
    1b78:	00a6fb63          	bgeu	a3,a0,1b8e <__divdi3+0x29a>
    1b7c:	969a                	add	a3,a3,t1
    1b7e:	fff60793          	addi	a5,a2,-1
    1b82:	1266e763          	bltu	a3,t1,1cb0 <__divdi3+0x3bc>
    1b86:	12a6f563          	bgeu	a3,a0,1cb0 <__divdi3+0x3bc>
    1b8a:	1679                	addi	a2,a2,-2
    1b8c:	969a                	add	a3,a3,t1
    1b8e:	010e1593          	slli	a1,t3,0x10
    1b92:	8e89                	sub	a3,a3,a0
    1b94:	8dd1                	or	a1,a1,a2
    1b96:	b545                	j	1a36 <__divdi3+0x142>
    1b98:	00665733          	srl	a4,a2,t1
    1b9c:	00f696b3          	sll	a3,a3,a5
    1ba0:	8ed9                	or	a3,a3,a4
    1ba2:	0065d8b3          	srl	a7,a1,t1
    1ba6:	0106df13          	srli	t5,a3,0x10
    1baa:	03e8deb3          	divu	t4,a7,t5
    1bae:	01069e13          	slli	t3,a3,0x10
    1bb2:	00655333          	srl	t1,a0,t1
    1bb6:	010e5e13          	srli	t3,t3,0x10
    1bba:	00f595b3          	sll	a1,a1,a5
    1bbe:	00b365b3          	or	a1,t1,a1
    1bc2:	0105d713          	srli	a4,a1,0x10
    1bc6:	00f61633          	sll	a2,a2,a5
    1bca:	03e8f8b3          	remu	a7,a7,t5
    1bce:	03de0333          	mul	t1,t3,t4
    1bd2:	08c2                	slli	a7,a7,0x10
    1bd4:	00e8e733          	or	a4,a7,a4
    1bd8:	00677b63          	bgeu	a4,t1,1bee <__divdi3+0x2fa>
    1bdc:	9736                	add	a4,a4,a3
    1bde:	fffe8893          	addi	a7,t4,-1
    1be2:	0cd76963          	bltu	a4,a3,1cb4 <__divdi3+0x3c0>
    1be6:	0c677763          	bgeu	a4,t1,1cb4 <__divdi3+0x3c0>
    1bea:	1ef9                	addi	t4,t4,-2
    1bec:	9736                	add	a4,a4,a3
    1bee:	40670733          	sub	a4,a4,t1
    1bf2:	03e75333          	divu	t1,a4,t5
    1bf6:	05c2                	slli	a1,a1,0x10
    1bf8:	81c1                	srli	a1,a1,0x10
    1bfa:	03e77733          	remu	a4,a4,t5
    1bfe:	026e08b3          	mul	a7,t3,t1
    1c02:	0742                	slli	a4,a4,0x10
    1c04:	8dd9                	or	a1,a1,a4
    1c06:	0115fb63          	bgeu	a1,a7,1c1c <__divdi3+0x328>
    1c0a:	95b6                	add	a1,a1,a3
    1c0c:	fff30713          	addi	a4,t1,-1
    1c10:	08d5ee63          	bltu	a1,a3,1cac <__divdi3+0x3b8>
    1c14:	0915fc63          	bgeu	a1,a7,1cac <__divdi3+0x3b8>
    1c18:	1379                	addi	t1,t1,-2
    1c1a:	95b6                	add	a1,a1,a3
    1c1c:	0ec2                	slli	t4,t4,0x10
    1c1e:	6f41                	lui	t5,0x10
    1c20:	006eeeb3          	or	t4,t4,t1
    1c24:	ffff0713          	addi	a4,t5,-1 # ffff <_data_lma+0xc553>
    1c28:	00eef6b3          	and	a3,t4,a4
    1c2c:	010ed313          	srli	t1,t4,0x10
    1c30:	8f71                	and	a4,a4,a2
    1c32:	8241                	srli	a2,a2,0x10
    1c34:	02e68e33          	mul	t3,a3,a4
    1c38:	411585b3          	sub	a1,a1,a7
    1c3c:	02c686b3          	mul	a3,a3,a2
    1c40:	010e5893          	srli	a7,t3,0x10
    1c44:	02e30733          	mul	a4,t1,a4
    1c48:	96ba                	add	a3,a3,a4
    1c4a:	96c6                	add	a3,a3,a7
    1c4c:	02c30633          	mul	a2,t1,a2
    1c50:	00e6f363          	bgeu	a3,a4,1c56 <__divdi3+0x362>
    1c54:	967a                	add	a2,a2,t5
    1c56:	0106d313          	srli	t1,a3,0x10
    1c5a:	961a                	add	a2,a2,t1
    1c5c:	02c5e263          	bltu	a1,a2,1c80 <__divdi3+0x38c>
    1c60:	00c58563          	beq	a1,a2,1c6a <__divdi3+0x376>
    1c64:	8576                	mv	a0,t4
    1c66:	4581                	li	a1,0
    1c68:	b395                	j	19cc <__divdi3+0xd8>
    1c6a:	6741                	lui	a4,0x10
    1c6c:	177d                	addi	a4,a4,-1
    1c6e:	8ef9                	and	a3,a3,a4
    1c70:	06c2                	slli	a3,a3,0x10
    1c72:	00ee7e33          	and	t3,t3,a4
    1c76:	00f517b3          	sll	a5,a0,a5
    1c7a:	96f2                	add	a3,a3,t3
    1c7c:	fed7f4e3          	bgeu	a5,a3,1c64 <__divdi3+0x370>
    1c80:	fffe8513          	addi	a0,t4,-1
    1c84:	4581                	li	a1,0
    1c86:	b399                	j	19cc <__divdi3+0xd8>
    1c88:	0106d893          	srli	a7,a3,0x10
    1c8c:	4741                	li	a4,16
    1c8e:	b505                	j	1aae <__divdi3+0x1ba>
    1c90:	01065693          	srli	a3,a2,0x10
    1c94:	47c1                	li	a5,16
    1c96:	b979                	j	1934 <__divdi3+0x40>
    1c98:	01035693          	srli	a3,t1,0x10
    1c9c:	47c1                	li	a5,16
    1c9e:	bb85                	j	1a0e <__divdi3+0x11a>
    1ca0:	4581                	li	a1,0
    1ca2:	4505                	li	a0,1
    1ca4:	b325                	j	19cc <__divdi3+0xd8>
    1ca6:	88b6                	mv	a7,a3
    1ca8:	4701                	li	a4,0
    1caa:	b511                	j	1aae <__divdi3+0x1ba>
    1cac:	833a                	mv	t1,a4
    1cae:	b7bd                	j	1c1c <__divdi3+0x328>
    1cb0:	863e                	mv	a2,a5
    1cb2:	bdf1                	j	1b8e <__divdi3+0x29a>
    1cb4:	8ec6                	mv	t4,a7
    1cb6:	bf25                	j	1bee <__divdi3+0x2fa>
    1cb8:	8e32                	mv	t3,a2
    1cba:	b555                	j	1b5e <__divdi3+0x26a>
    1cbc:	17f9                	addi	a5,a5,-2
    1cbe:	989a                	add	a7,a7,t1
    1cc0:	b9c9                	j	1992 <__divdi3+0x9e>
    1cc2:	17f9                	addi	a5,a5,-2
    1cc4:	971a                	add	a4,a4,t1
    1cc6:	bb61                	j	1a5e <__divdi3+0x16a>

00001cc8 <__udivdi3>:
    1cc8:	87b6                	mv	a5,a3
    1cca:	88b2                	mv	a7,a2
    1ccc:	832a                	mv	t1,a0
    1cce:	882e                	mv	a6,a1
    1cd0:	14069b63          	bnez	a3,1e26 <__udivdi3+0x15e>
    1cd4:	0ac5f863          	bgeu	a1,a2,1d84 <__udivdi3+0xbc>
    1cd8:	6741                	lui	a4,0x10
    1cda:	1ae66b63          	bltu	a2,a4,1e90 <__udivdi3+0x1c8>
    1cde:	010007b7          	lui	a5,0x1000
    1ce2:	34f66063          	bltu	a2,a5,2022 <__udivdi3+0x35a>
    1ce6:	01865693          	srli	a3,a2,0x18
    1cea:	47e1                	li	a5,24
    1cec:	00002717          	auipc	a4,0x2
    1cf0:	c2470713          	addi	a4,a4,-988 # 3910 <__clz_tab>
    1cf4:	9736                	add	a4,a4,a3
    1cf6:	2318                	lbu	a4,0(a4)
    1cf8:	97ba                	add	a5,a5,a4
    1cfa:	02000713          	li	a4,32
    1cfe:	8f1d                	sub	a4,a4,a5
    1d00:	cb19                	beqz	a4,1d16 <__udivdi3+0x4e>
    1d02:	00e59833          	sll	a6,a1,a4
    1d06:	00f557b3          	srl	a5,a0,a5
    1d0a:	00e618b3          	sll	a7,a2,a4
    1d0e:	0107e833          	or	a6,a5,a6
    1d12:	00e51333          	sll	t1,a0,a4
    1d16:	0108d613          	srli	a2,a7,0x10
    1d1a:	02c85533          	divu	a0,a6,a2
    1d1e:	01089693          	slli	a3,a7,0x10
    1d22:	82c1                	srli	a3,a3,0x10
    1d24:	01035793          	srli	a5,t1,0x10
    1d28:	02c87733          	remu	a4,a6,a2
    1d2c:	02a685b3          	mul	a1,a3,a0
    1d30:	0742                	slli	a4,a4,0x10
    1d32:	00f76833          	or	a6,a4,a5
    1d36:	00b87a63          	bgeu	a6,a1,1d4a <__udivdi3+0x82>
    1d3a:	9846                	add	a6,a6,a7
    1d3c:	fff50793          	addi	a5,a0,-1
    1d40:	01186463          	bltu	a6,a7,1d48 <__udivdi3+0x80>
    1d44:	30b86563          	bltu	a6,a1,204e <__udivdi3+0x386>
    1d48:	853e                	mv	a0,a5
    1d4a:	40b80833          	sub	a6,a6,a1
    1d4e:	02c85733          	divu	a4,a6,a2
    1d52:	0342                	slli	t1,t1,0x10
    1d54:	01035313          	srli	t1,t1,0x10
    1d58:	02c87833          	remu	a6,a6,a2
    1d5c:	02e686b3          	mul	a3,a3,a4
    1d60:	0842                	slli	a6,a6,0x10
    1d62:	00686833          	or	a6,a6,t1
    1d66:	00d87b63          	bgeu	a6,a3,1d7c <__udivdi3+0xb4>
    1d6a:	9846                	add	a6,a6,a7
    1d6c:	fff70793          	addi	a5,a4,-1
    1d70:	01186563          	bltu	a6,a7,1d7a <__udivdi3+0xb2>
    1d74:	1779                	addi	a4,a4,-2
    1d76:	00d86363          	bltu	a6,a3,1d7c <__udivdi3+0xb4>
    1d7a:	873e                	mv	a4,a5
    1d7c:	0542                	slli	a0,a0,0x10
    1d7e:	8d59                	or	a0,a0,a4
    1d80:	4581                	li	a1,0
    1d82:	8082                	ret
    1d84:	e601                	bnez	a2,1d8c <__udivdi3+0xc4>
    1d86:	4705                	li	a4,1
    1d88:	02c758b3          	divu	a7,a4,a2
    1d8c:	6741                	lui	a4,0x10
    1d8e:	0ee8e863          	bltu	a7,a4,1e7e <__udivdi3+0x1b6>
    1d92:	010007b7          	lui	a5,0x1000
    1d96:	28f8ea63          	bltu	a7,a5,202a <__udivdi3+0x362>
    1d9a:	0188d693          	srli	a3,a7,0x18
    1d9e:	47e1                	li	a5,24
    1da0:	00002717          	auipc	a4,0x2
    1da4:	b7070713          	addi	a4,a4,-1168 # 3910 <__clz_tab>
    1da8:	9736                	add	a4,a4,a3
    1daa:	2314                	lbu	a3,0(a4)
    1dac:	96be                	add	a3,a3,a5
    1dae:	02000793          	li	a5,32
    1db2:	8f95                	sub	a5,a5,a3
    1db4:	e7fd                	bnez	a5,1ea2 <__udivdi3+0x1da>
    1db6:	01089e93          	slli	t4,a7,0x10
    1dba:	41158733          	sub	a4,a1,a7
    1dbe:	0108df13          	srli	t5,a7,0x10
    1dc2:	010ede93          	srli	t4,t4,0x10
    1dc6:	4585                	li	a1,1
    1dc8:	01035793          	srli	a5,t1,0x10
    1dcc:	03e75533          	divu	a0,a4,t5
    1dd0:	03e77733          	remu	a4,a4,t5
    1dd4:	03d506b3          	mul	a3,a0,t4
    1dd8:	0742                	slli	a4,a4,0x10
    1dda:	8fd9                	or	a5,a5,a4
    1ddc:	00d7fa63          	bgeu	a5,a3,1df0 <__udivdi3+0x128>
    1de0:	97c6                	add	a5,a5,a7
    1de2:	fff50713          	addi	a4,a0,-1
    1de6:	0117e463          	bltu	a5,a7,1dee <__udivdi3+0x126>
    1dea:	26d7e563          	bltu	a5,a3,2054 <__udivdi3+0x38c>
    1dee:	853a                	mv	a0,a4
    1df0:	8f95                	sub	a5,a5,a3
    1df2:	03e7d733          	divu	a4,a5,t5
    1df6:	0342                	slli	t1,t1,0x10
    1df8:	01035313          	srli	t1,t1,0x10
    1dfc:	03e7f7b3          	remu	a5,a5,t5
    1e00:	03d70eb3          	mul	t4,a4,t4
    1e04:	07c2                	slli	a5,a5,0x10
    1e06:	0067e7b3          	or	a5,a5,t1
    1e0a:	01d7fb63          	bgeu	a5,t4,1e20 <__udivdi3+0x158>
    1e0e:	97c6                	add	a5,a5,a7
    1e10:	fff70693          	addi	a3,a4,-1
    1e14:	0117e563          	bltu	a5,a7,1e1e <__udivdi3+0x156>
    1e18:	1779                	addi	a4,a4,-2
    1e1a:	01d7e363          	bltu	a5,t4,1e20 <__udivdi3+0x158>
    1e1e:	8736                	mv	a4,a3
    1e20:	0542                	slli	a0,a0,0x10
    1e22:	8d59                	or	a0,a0,a4
    1e24:	8082                	ret
    1e26:	04d5e163          	bltu	a1,a3,1e68 <__udivdi3+0x1a0>
    1e2a:	67c1                	lui	a5,0x10
    1e2c:	04f6e163          	bltu	a3,a5,1e6e <__udivdi3+0x1a6>
    1e30:	010007b7          	lui	a5,0x1000
    1e34:	1ef6e363          	bltu	a3,a5,201a <__udivdi3+0x352>
    1e38:	0186d713          	srli	a4,a3,0x18
    1e3c:	4861                	li	a6,24
    1e3e:	00002797          	auipc	a5,0x2
    1e42:	ad278793          	addi	a5,a5,-1326 # 3910 <__clz_tab>
    1e46:	97ba                	add	a5,a5,a4
    1e48:	2398                	lbu	a4,0(a5)
    1e4a:	02000e13          	li	t3,32
    1e4e:	9742                	add	a4,a4,a6
    1e50:	40ee0e33          	sub	t3,t3,a4
    1e54:	0c0e1a63          	bnez	t3,1f28 <__udivdi3+0x260>
    1e58:	1cb6ed63          	bltu	a3,a1,2032 <__udivdi3+0x36a>
    1e5c:	00c53533          	sltu	a0,a0,a2
    1e60:	00154513          	xori	a0,a0,1
    1e64:	4581                	li	a1,0
    1e66:	8082                	ret
    1e68:	4581                	li	a1,0
    1e6a:	4501                	li	a0,0
    1e6c:	8082                	ret
    1e6e:	0ff00793          	li	a5,255
    1e72:	1cd7f363          	bgeu	a5,a3,2038 <__udivdi3+0x370>
    1e76:	0086d713          	srli	a4,a3,0x8
    1e7a:	4821                	li	a6,8
    1e7c:	b7c9                	j	1e3e <__udivdi3+0x176>
    1e7e:	0ff00713          	li	a4,255
    1e82:	86c6                	mv	a3,a7
    1e84:	f1177ee3          	bgeu	a4,a7,1da0 <__udivdi3+0xd8>
    1e88:	0088d693          	srli	a3,a7,0x8
    1e8c:	47a1                	li	a5,8
    1e8e:	bf09                	j	1da0 <__udivdi3+0xd8>
    1e90:	0ff00713          	li	a4,255
    1e94:	86b2                	mv	a3,a2
    1e96:	e4c77be3          	bgeu	a4,a2,1cec <__udivdi3+0x24>
    1e9a:	00865693          	srli	a3,a2,0x8
    1e9e:	47a1                	li	a5,8
    1ea0:	b5b1                	j	1cec <__udivdi3+0x24>
    1ea2:	00f898b3          	sll	a7,a7,a5
    1ea6:	00d5d633          	srl	a2,a1,a3
    1eaa:	0108df13          	srli	t5,a7,0x10
    1eae:	03e65e33          	divu	t3,a2,t5
    1eb2:	00f59733          	sll	a4,a1,a5
    1eb6:	00d556b3          	srl	a3,a0,a3
    1eba:	8f55                	or	a4,a4,a3
    1ebc:	01089e93          	slli	t4,a7,0x10
    1ec0:	010ede93          	srli	t4,t4,0x10
    1ec4:	00f51333          	sll	t1,a0,a5
    1ec8:	01075593          	srli	a1,a4,0x10
    1ecc:	03e676b3          	remu	a3,a2,t5
    1ed0:	03ce87b3          	mul	a5,t4,t3
    1ed4:	06c2                	slli	a3,a3,0x10
    1ed6:	8ecd                	or	a3,a3,a1
    1ed8:	00f6fb63          	bgeu	a3,a5,1eee <__udivdi3+0x226>
    1edc:	96c6                	add	a3,a3,a7
    1ede:	fffe0613          	addi	a2,t3,-1
    1ee2:	1716e463          	bltu	a3,a7,204a <__udivdi3+0x382>
    1ee6:	16f6f263          	bgeu	a3,a5,204a <__udivdi3+0x382>
    1eea:	1e79                	addi	t3,t3,-2
    1eec:	96c6                	add	a3,a3,a7
    1eee:	8e9d                	sub	a3,a3,a5
    1ef0:	03e6d633          	divu	a2,a3,t5
    1ef4:	01071793          	slli	a5,a4,0x10
    1ef8:	83c1                	srli	a5,a5,0x10
    1efa:	03e6f6b3          	remu	a3,a3,t5
    1efe:	02ce8533          	mul	a0,t4,a2
    1f02:	01069713          	slli	a4,a3,0x10
    1f06:	8f5d                	or	a4,a4,a5
    1f08:	00a77b63          	bgeu	a4,a0,1f1e <__udivdi3+0x256>
    1f0c:	9746                	add	a4,a4,a7
    1f0e:	fff60793          	addi	a5,a2,-1
    1f12:	13176863          	bltu	a4,a7,2042 <__udivdi3+0x37a>
    1f16:	12a77663          	bgeu	a4,a0,2042 <__udivdi3+0x37a>
    1f1a:	1679                	addi	a2,a2,-2
    1f1c:	9746                	add	a4,a4,a7
    1f1e:	010e1593          	slli	a1,t3,0x10
    1f22:	8f09                	sub	a4,a4,a0
    1f24:	8dd1                	or	a1,a1,a2
    1f26:	b54d                	j	1dc8 <__udivdi3+0x100>
    1f28:	00e657b3          	srl	a5,a2,a4
    1f2c:	01c696b3          	sll	a3,a3,t3
    1f30:	8edd                	or	a3,a3,a5
    1f32:	00e5d333          	srl	t1,a1,a4
    1f36:	0106df13          	srli	t5,a3,0x10
    1f3a:	03e357b3          	divu	a5,t1,t5
    1f3e:	01069e93          	slli	t4,a3,0x10
    1f42:	010ede93          	srli	t4,t4,0x10
    1f46:	01c59833          	sll	a6,a1,t3
    1f4a:	00e55733          	srl	a4,a0,a4
    1f4e:	01076833          	or	a6,a4,a6
    1f52:	01085893          	srli	a7,a6,0x10
    1f56:	01c61633          	sll	a2,a2,t3
    1f5a:	03e37333          	remu	t1,t1,t5
    1f5e:	02fe85b3          	mul	a1,t4,a5
    1f62:	0342                	slli	t1,t1,0x10
    1f64:	011368b3          	or	a7,t1,a7
    1f68:	00b8fb63          	bgeu	a7,a1,1f7e <__udivdi3+0x2b6>
    1f6c:	98b6                	add	a7,a7,a3
    1f6e:	fff78713          	addi	a4,a5,-1
    1f72:	0cd8ea63          	bltu	a7,a3,2046 <__udivdi3+0x37e>
    1f76:	0cb8f863          	bgeu	a7,a1,2046 <__udivdi3+0x37e>
    1f7a:	17f9                	addi	a5,a5,-2
    1f7c:	98b6                	add	a7,a7,a3
    1f7e:	40b888b3          	sub	a7,a7,a1
    1f82:	03e8d733          	divu	a4,a7,t5
    1f86:	0842                	slli	a6,a6,0x10
    1f88:	01085813          	srli	a6,a6,0x10
    1f8c:	03e8f8b3          	remu	a7,a7,t5
    1f90:	02ee8333          	mul	t1,t4,a4
    1f94:	08c2                	slli	a7,a7,0x10
    1f96:	0108e5b3          	or	a1,a7,a6
    1f9a:	0065fb63          	bgeu	a1,t1,1fb0 <__udivdi3+0x2e8>
    1f9e:	95b6                	add	a1,a1,a3
    1fa0:	fff70813          	addi	a6,a4,-1
    1fa4:	08d5ed63          	bltu	a1,a3,203e <__udivdi3+0x376>
    1fa8:	0865fb63          	bgeu	a1,t1,203e <__udivdi3+0x376>
    1fac:	1779                	addi	a4,a4,-2
    1fae:	95b6                	add	a1,a1,a3
    1fb0:	07c2                	slli	a5,a5,0x10
    1fb2:	6f41                	lui	t5,0x10
    1fb4:	8fd9                	or	a5,a5,a4
    1fb6:	ffff0713          	addi	a4,t5,-1 # ffff <_data_lma+0xc553>
    1fba:	00e7f6b3          	and	a3,a5,a4
    1fbe:	0107d893          	srli	a7,a5,0x10
    1fc2:	8f71                	and	a4,a4,a2
    1fc4:	8241                	srli	a2,a2,0x10
    1fc6:	02e68eb3          	mul	t4,a3,a4
    1fca:	406585b3          	sub	a1,a1,t1
    1fce:	02c686b3          	mul	a3,a3,a2
    1fd2:	010ed813          	srli	a6,t4,0x10
    1fd6:	02e88733          	mul	a4,a7,a4
    1fda:	96ba                	add	a3,a3,a4
    1fdc:	96c2                	add	a3,a3,a6
    1fde:	02c88633          	mul	a2,a7,a2
    1fe2:	00e6f363          	bgeu	a3,a4,1fe8 <__udivdi3+0x320>
    1fe6:	967a                	add	a2,a2,t5
    1fe8:	0106d893          	srli	a7,a3,0x10
    1fec:	9646                	add	a2,a2,a7
    1fee:	02c5e263          	bltu	a1,a2,2012 <__udivdi3+0x34a>
    1ff2:	00c58563          	beq	a1,a2,1ffc <__udivdi3+0x334>
    1ff6:	853e                	mv	a0,a5
    1ff8:	4581                	li	a1,0
    1ffa:	8082                	ret
    1ffc:	6741                	lui	a4,0x10
    1ffe:	177d                	addi	a4,a4,-1
    2000:	8ef9                	and	a3,a3,a4
    2002:	06c2                	slli	a3,a3,0x10
    2004:	00eefeb3          	and	t4,t4,a4
    2008:	01c51533          	sll	a0,a0,t3
    200c:	96f6                	add	a3,a3,t4
    200e:	fed574e3          	bgeu	a0,a3,1ff6 <__udivdi3+0x32e>
    2012:	fff78513          	addi	a0,a5,-1
    2016:	4581                	li	a1,0
    2018:	8082                	ret
    201a:	0106d713          	srli	a4,a3,0x10
    201e:	4841                	li	a6,16
    2020:	bd39                	j	1e3e <__udivdi3+0x176>
    2022:	01065693          	srli	a3,a2,0x10
    2026:	47c1                	li	a5,16
    2028:	b1d1                	j	1cec <__udivdi3+0x24>
    202a:	0108d693          	srli	a3,a7,0x10
    202e:	47c1                	li	a5,16
    2030:	bb85                	j	1da0 <__udivdi3+0xd8>
    2032:	4581                	li	a1,0
    2034:	4505                	li	a0,1
    2036:	8082                	ret
    2038:	8736                	mv	a4,a3
    203a:	4801                	li	a6,0
    203c:	b509                	j	1e3e <__udivdi3+0x176>
    203e:	8742                	mv	a4,a6
    2040:	bf85                	j	1fb0 <__udivdi3+0x2e8>
    2042:	863e                	mv	a2,a5
    2044:	bde9                	j	1f1e <__udivdi3+0x256>
    2046:	87ba                	mv	a5,a4
    2048:	bf1d                	j	1f7e <__udivdi3+0x2b6>
    204a:	8e32                	mv	t3,a2
    204c:	b54d                	j	1eee <__udivdi3+0x226>
    204e:	1579                	addi	a0,a0,-2
    2050:	9846                	add	a6,a6,a7
    2052:	b9e5                	j	1d4a <__udivdi3+0x82>
    2054:	1579                	addi	a0,a0,-2
    2056:	97c6                	add	a5,a5,a7
    2058:	bb61                	j	1df0 <__udivdi3+0x128>

0000205a <__divsf3>:
    205a:	7139                	addi	sp,sp,-64
    205c:	01755793          	srli	a5,a0,0x17
    2060:	d84a                	sw	s2,48(sp)
    2062:	d256                	sw	s5,36(sp)
    2064:	ce5e                	sw	s7,28(sp)
    2066:	00951a93          	slli	s5,a0,0x9
    206a:	01f55913          	srli	s2,a0,0x1f
    206e:	de06                	sw	ra,60(sp)
    2070:	dc22                	sw	s0,56(sp)
    2072:	da26                	sw	s1,52(sp)
    2074:	d64e                	sw	s3,44(sp)
    2076:	d452                	sw	s4,40(sp)
    2078:	d05a                	sw	s6,32(sp)
    207a:	0ff7f793          	andi	a5,a5,255
    207e:	009ada93          	srli	s5,s5,0x9
    2082:	8bca                	mv	s7,s2
    2084:	12078263          	beqz	a5,21a8 <__divsf3+0x14e>
    2088:	0ff00713          	li	a4,255
    208c:	12e78463          	beq	a5,a4,21b4 <__divsf3+0x15a>
    2090:	0a8e                	slli	s5,s5,0x3
    2092:	04000737          	lui	a4,0x4000
    2096:	00eaeab3          	or	s5,s5,a4
    209a:	f8178a13          	addi	s4,a5,-127
    209e:	4401                	li	s0,0
    20a0:	4b01                	li	s6,0
    20a2:	0175d793          	srli	a5,a1,0x17
    20a6:	00959493          	slli	s1,a1,0x9
    20aa:	0ff7f793          	andi	a5,a5,255
    20ae:	80a5                	srli	s1,s1,0x9
    20b0:	01f5d993          	srli	s3,a1,0x1f
    20b4:	c7fd                	beqz	a5,21a2 <__divsf3+0x148>
    20b6:	0ff00713          	li	a4,255
    20ba:	02e78763          	beq	a5,a4,20e8 <__divsf3+0x8e>
    20be:	048e                	slli	s1,s1,0x3
    20c0:	f8178793          	addi	a5,a5,-127
    20c4:	04000737          	lui	a4,0x4000
    20c8:	8cd9                	or	s1,s1,a4
    20ca:	40fa0a33          	sub	s4,s4,a5
    20ce:	4681                	li	a3,0
    20d0:	8c55                	or	s0,s0,a3
    20d2:	00001717          	auipc	a4,0x1
    20d6:	7be70713          	addi	a4,a4,1982 # 3890 <_read+0x180>
    20da:	040a                	slli	s0,s0,0x2
    20dc:	943a                	add	s0,s0,a4
    20de:	401c                	lw	a5,0(s0)
    20e0:	01394933          	xor	s2,s2,s3
    20e4:	97ba                	add	a5,a5,a4
    20e6:	8782                	jr	a5
    20e8:	f01a0a13          	addi	s4,s4,-255
    20ec:	e8f9                	bnez	s1,21c2 <__divsf3+0x168>
    20ee:	4689                	li	a3,2
    20f0:	8c55                	or	s0,s0,a3
    20f2:	00001717          	auipc	a4,0x1
    20f6:	7de70713          	addi	a4,a4,2014 # 38d0 <_read+0x1c0>
    20fa:	040a                	slli	s0,s0,0x2
    20fc:	943a                	add	s0,s0,a4
    20fe:	401c                	lw	a5,0(s0)
    2100:	01394933          	xor	s2,s2,s3
    2104:	97ba                	add	a5,a5,a4
    2106:	8782                	jr	a5
    2108:	4901                	li	s2,0
    210a:	0ff00713          	li	a4,255
    210e:	004007b7          	lui	a5,0x400
    2112:	00979513          	slli	a0,a5,0x9
    2116:	50f2                	lw	ra,60(sp)
    2118:	5462                	lw	s0,56(sp)
    211a:	01771793          	slli	a5,a4,0x17
    211e:	8125                	srli	a0,a0,0x9
    2120:	097e                	slli	s2,s2,0x1f
    2122:	8d5d                	or	a0,a0,a5
    2124:	01256533          	or	a0,a0,s2
    2128:	54d2                	lw	s1,52(sp)
    212a:	5942                	lw	s2,48(sp)
    212c:	59b2                	lw	s3,44(sp)
    212e:	5a22                	lw	s4,40(sp)
    2130:	5a92                	lw	s5,36(sp)
    2132:	5b02                	lw	s6,32(sp)
    2134:	4bf2                	lw	s7,28(sp)
    2136:	6121                	addi	sp,sp,64
    2138:	8082                	ret
    213a:	0ff00713          	li	a4,255
    213e:	4781                	li	a5,0
    2140:	bfc9                	j	2112 <__divsf3+0xb8>
    2142:	8aa6                	mv	s5,s1
    2144:	8bce                	mv	s7,s3
    2146:	8b36                	mv	s6,a3
    2148:	4789                	li	a5,2
    214a:	1afb0963          	beq	s6,a5,22fc <__divsf3+0x2a2>
    214e:	478d                	li	a5,3
    2150:	fafb0ce3          	beq	s6,a5,2108 <__divsf3+0xae>
    2154:	4785                	li	a5,1
    2156:	0afb0863          	beq	s6,a5,2206 <__divsf3+0x1ac>
    215a:	07fa0713          	addi	a4,s4,127
    215e:	001bf913          	andi	s2,s7,1
    2162:	12e05563          	blez	a4,228c <__divsf3+0x232>
    2166:	007af793          	andi	a5,s5,7
    216a:	c799                	beqz	a5,2178 <__divsf3+0x11e>
    216c:	00faf793          	andi	a5,s5,15
    2170:	4691                	li	a3,4
    2172:	00d78363          	beq	a5,a3,2178 <__divsf3+0x11e>
    2176:	0a91                	addi	s5,s5,4
    2178:	004a9793          	slli	a5,s5,0x4
    217c:	0007d963          	bgez	a5,218e <__divsf3+0x134>
    2180:	f80007b7          	lui	a5,0xf8000
    2184:	17fd                	addi	a5,a5,-1
    2186:	00fafab3          	and	s5,s5,a5
    218a:	080a0713          	addi	a4,s4,128
    218e:	0fe00793          	li	a5,254
    2192:	fae7c4e3          	blt	a5,a4,213a <__divsf3+0xe0>
    2196:	006a9793          	slli	a5,s5,0x6
    219a:	83a5                	srli	a5,a5,0x9
    219c:	0ff77713          	andi	a4,a4,255
    21a0:	bf8d                	j	2112 <__divsf3+0xb8>
    21a2:	e4b1                	bnez	s1,21ee <__divsf3+0x194>
    21a4:	4685                	li	a3,1
    21a6:	b7a9                	j	20f0 <__divsf3+0x96>
    21a8:	020a9463          	bnez	s5,21d0 <__divsf3+0x176>
    21ac:	4411                	li	s0,4
    21ae:	4a01                	li	s4,0
    21b0:	4b05                	li	s6,1
    21b2:	bdc5                	j	20a2 <__divsf3+0x48>
    21b4:	000a9963          	bnez	s5,21c6 <__divsf3+0x16c>
    21b8:	4421                	li	s0,8
    21ba:	0ff00a13          	li	s4,255
    21be:	4b09                	li	s6,2
    21c0:	b5cd                	j	20a2 <__divsf3+0x48>
    21c2:	468d                	li	a3,3
    21c4:	b731                	j	20d0 <__divsf3+0x76>
    21c6:	4431                	li	s0,12
    21c8:	0ff00a13          	li	s4,255
    21cc:	4b0d                	li	s6,3
    21ce:	bdd1                	j	20a2 <__divsf3+0x48>
    21d0:	8556                	mv	a0,s5
    21d2:	c62e                	sw	a1,12(sp)
    21d4:	2cb1                	jal	2430 <__clzsi2>
    21d6:	ffb50793          	addi	a5,a0,-5
    21da:	00fa9ab3          	sll	s5,s5,a5
    21de:	f8a00793          	li	a5,-118
    21e2:	40a78a33          	sub	s4,a5,a0
    21e6:	4401                	li	s0,0
    21e8:	4b01                	li	s6,0
    21ea:	45b2                	lw	a1,12(sp)
    21ec:	bd5d                	j	20a2 <__divsf3+0x48>
    21ee:	8526                	mv	a0,s1
    21f0:	2481                	jal	2430 <__clzsi2>
    21f2:	ffb50713          	addi	a4,a0,-5
    21f6:	00aa07b3          	add	a5,s4,a0
    21fa:	00e494b3          	sll	s1,s1,a4
    21fe:	07678a13          	addi	s4,a5,118 # f8000076 <_eusrstack+0xd7ffb076>
    2202:	4681                	li	a3,0
    2204:	b5f1                	j	20d0 <__divsf3+0x76>
    2206:	001bf913          	andi	s2,s7,1
    220a:	4701                	li	a4,0
    220c:	4781                	li	a5,0
    220e:	b711                	j	2112 <__divsf3+0xb8>
    2210:	6641                	lui	a2,0x10
    2212:	00549513          	slli	a0,s1,0x5
    2216:	167d                	addi	a2,a2,-1
    2218:	01055793          	srli	a5,a0,0x10
    221c:	8e69                	and	a2,a2,a0
    221e:	0a9afa63          	bgeu	s5,s1,22d2 <__divsf3+0x278>
    2222:	02fad5b3          	divu	a1,s5,a5
    2226:	1a7d                	addi	s4,s4,-1
    2228:	86d6                	mv	a3,s5
    222a:	4701                	li	a4,0
    222c:	02c58833          	mul	a6,a1,a2
    2230:	02f6f6b3          	remu	a3,a3,a5
    2234:	06c2                	slli	a3,a3,0x10
    2236:	8f55                	or	a4,a4,a3
    2238:	01077b63          	bgeu	a4,a6,224e <__divsf3+0x1f4>
    223c:	972a                	add	a4,a4,a0
    223e:	fff58693          	addi	a3,a1,-1
    2242:	0aa76863          	bltu	a4,a0,22f2 <__divsf3+0x298>
    2246:	0b077663          	bgeu	a4,a6,22f2 <__divsf3+0x298>
    224a:	15f9                	addi	a1,a1,-2
    224c:	972a                	add	a4,a4,a0
    224e:	41070733          	sub	a4,a4,a6
    2252:	02f756b3          	divu	a3,a4,a5
    2256:	02f77733          	remu	a4,a4,a5
    225a:	02c68ab3          	mul	s5,a3,a2
    225e:	01071793          	slli	a5,a4,0x10
    2262:	0157fb63          	bgeu	a5,s5,2278 <__divsf3+0x21e>
    2266:	97aa                	add	a5,a5,a0
    2268:	fff68713          	addi	a4,a3,-1
    226c:	08a7e163          	bltu	a5,a0,22ee <__divsf3+0x294>
    2270:	0757ff63          	bgeu	a5,s5,22ee <__divsf3+0x294>
    2274:	16f9                	addi	a3,a3,-2
    2276:	97aa                	add	a5,a5,a0
    2278:	05c2                	slli	a1,a1,0x10
    227a:	41578ab3          	sub	s5,a5,s5
    227e:	8dd5                	or	a1,a1,a3
    2280:	01503ab3          	snez	s5,s5
    2284:	0155eab3          	or	s5,a1,s5
    2288:	8bca                	mv	s7,s2
    228a:	bdc1                	j	215a <__divsf3+0x100>
    228c:	4685                	li	a3,1
    228e:	8e99                	sub	a3,a3,a4
    2290:	c711                	beqz	a4,229c <__divsf3+0x242>
    2292:	466d                	li	a2,27
    2294:	4701                	li	a4,0
    2296:	4781                	li	a5,0
    2298:	e6d64de3          	blt	a2,a3,2112 <__divsf3+0xb8>
    229c:	09ea0a13          	addi	s4,s4,158
    22a0:	014a9a33          	sll	s4,s5,s4
    22a4:	00dad7b3          	srl	a5,s5,a3
    22a8:	01403ab3          	snez	s5,s4
    22ac:	0157e7b3          	or	a5,a5,s5
    22b0:	0077f713          	andi	a4,a5,7
    22b4:	c719                	beqz	a4,22c2 <__divsf3+0x268>
    22b6:	00f7f713          	andi	a4,a5,15
    22ba:	4691                	li	a3,4
    22bc:	00d70363          	beq	a4,a3,22c2 <__divsf3+0x268>
    22c0:	0791                	addi	a5,a5,4
    22c2:	00579713          	slli	a4,a5,0x5
    22c6:	02074863          	bltz	a4,22f6 <__divsf3+0x29c>
    22ca:	079a                	slli	a5,a5,0x6
    22cc:	83a5                	srli	a5,a5,0x9
    22ce:	4701                	li	a4,0
    22d0:	b589                	j	2112 <__divsf3+0xb8>
    22d2:	001ad693          	srli	a3,s5,0x1
    22d6:	02f6d5b3          	divu	a1,a3,a5
    22da:	01fa9713          	slli	a4,s5,0x1f
    22de:	8341                	srli	a4,a4,0x10
    22e0:	02c58833          	mul	a6,a1,a2
    22e4:	b7b1                	j	2230 <__divsf3+0x1d6>
    22e6:	8bce                	mv	s7,s3
    22e8:	8b36                	mv	s6,a3
    22ea:	4a81                	li	s5,0
    22ec:	bdb1                	j	2148 <__divsf3+0xee>
    22ee:	86ba                	mv	a3,a4
    22f0:	b761                	j	2278 <__divsf3+0x21e>
    22f2:	85b6                	mv	a1,a3
    22f4:	bfa9                	j	224e <__divsf3+0x1f4>
    22f6:	4705                	li	a4,1
    22f8:	4781                	li	a5,0
    22fa:	bd21                	j	2112 <__divsf3+0xb8>
    22fc:	001bf913          	andi	s2,s7,1
    2300:	0ff00713          	li	a4,255
    2304:	4781                	li	a5,0
    2306:	b531                	j	2112 <__divsf3+0xb8>

00002308 <__fixsfsi>:
    2308:	00800637          	lui	a2,0x800
    230c:	01755713          	srli	a4,a0,0x17
    2310:	fff60793          	addi	a5,a2,-1 # 7fffff <_data_lma+0x7fc553>
    2314:	0ff77713          	andi	a4,a4,255
    2318:	07e00593          	li	a1,126
    231c:	00a7f6b3          	and	a3,a5,a0
    2320:	01f55793          	srli	a5,a0,0x1f
    2324:	00e5fc63          	bgeu	a1,a4,233c <__fixsfsi+0x34>
    2328:	09d00593          	li	a1,157
    232c:	00e5fa63          	bgeu	a1,a4,2340 <__fixsfsi+0x38>
    2330:	80000537          	lui	a0,0x80000
    2334:	fff54513          	not	a0,a0
    2338:	953e                	add	a0,a0,a5
    233a:	8082                	ret
    233c:	4501                	li	a0,0
    233e:	8082                	ret
    2340:	09500593          	li	a1,149
    2344:	8ed1                	or	a3,a3,a2
    2346:	00e5cd63          	blt	a1,a4,2360 <__fixsfsi+0x58>
    234a:	09600613          	li	a2,150
    234e:	40e60733          	sub	a4,a2,a4
    2352:	00e6d733          	srl	a4,a3,a4
    2356:	40e00533          	neg	a0,a4
    235a:	f3f5                	bnez	a5,233e <__fixsfsi+0x36>
    235c:	853a                	mv	a0,a4
    235e:	8082                	ret
    2360:	f6a70713          	addi	a4,a4,-150
    2364:	00e69733          	sll	a4,a3,a4
    2368:	b7fd                	j	2356 <__fixsfsi+0x4e>

0000236a <__floatsisf>:
    236a:	1141                	addi	sp,sp,-16
    236c:	c606                	sw	ra,12(sp)
    236e:	c422                	sw	s0,8(sp)
    2370:	c226                	sw	s1,4(sp)
    2372:	cd0d                	beqz	a0,23ac <__floatsisf+0x42>
    2374:	41f55793          	srai	a5,a0,0x1f
    2378:	00a7c433          	xor	s0,a5,a0
    237c:	8c1d                	sub	s0,s0,a5
    237e:	84aa                	mv	s1,a0
    2380:	8522                	mv	a0,s0
    2382:	207d                	jal	2430 <__clzsi2>
    2384:	09e00793          	li	a5,158
    2388:	40a78733          	sub	a4,a5,a0
    238c:	09600793          	li	a5,150
    2390:	80fd                	srli	s1,s1,0x1f
    2392:	02e7cc63          	blt	a5,a4,23ca <__floatsisf+0x60>
    2396:	46a1                	li	a3,8
    2398:	0ff77793          	andi	a5,a4,255
    239c:	00a6d563          	bge	a3,a0,23a6 <__floatsisf+0x3c>
    23a0:	1561                	addi	a0,a0,-8
    23a2:	00a41433          	sll	s0,s0,a0
    23a6:	0426                	slli	s0,s0,0x9
    23a8:	8025                	srli	s0,s0,0x9
    23aa:	a021                	j	23b2 <__floatsisf+0x48>
    23ac:	4481                	li	s1,0
    23ae:	4781                	li	a5,0
    23b0:	4401                	li	s0,0
    23b2:	0426                	slli	s0,s0,0x9
    23b4:	00945513          	srli	a0,s0,0x9
    23b8:	40b2                	lw	ra,12(sp)
    23ba:	4422                	lw	s0,8(sp)
    23bc:	07de                	slli	a5,a5,0x17
    23be:	04fe                	slli	s1,s1,0x1f
    23c0:	8d5d                	or	a0,a0,a5
    23c2:	8d45                	or	a0,a0,s1
    23c4:	4492                	lw	s1,4(sp)
    23c6:	0141                	addi	sp,sp,16
    23c8:	8082                	ret
    23ca:	09900793          	li	a5,153
    23ce:	00e7dd63          	bge	a5,a4,23e8 <__floatsisf+0x7e>
    23d2:	01b50793          	addi	a5,a0,27 # 8000001b <_eusrstack+0x5fffb01b>
    23d6:	4695                	li	a3,5
    23d8:	00f417b3          	sll	a5,s0,a5
    23dc:	8e89                	sub	a3,a3,a0
    23de:	00d45433          	srl	s0,s0,a3
    23e2:	00f037b3          	snez	a5,a5
    23e6:	8c5d                	or	s0,s0,a5
    23e8:	4795                	li	a5,5
    23ea:	00a7d663          	bge	a5,a0,23f6 <__floatsisf+0x8c>
    23ee:	ffb50793          	addi	a5,a0,-5
    23f2:	00f41433          	sll	s0,s0,a5
    23f6:	fc0006b7          	lui	a3,0xfc000
    23fa:	16fd                	addi	a3,a3,-1
    23fc:	00747793          	andi	a5,s0,7
    2400:	00d47633          	and	a2,s0,a3
    2404:	c385                	beqz	a5,2424 <__floatsisf+0xba>
    2406:	00f47793          	andi	a5,s0,15
    240a:	4591                	li	a1,4
    240c:	00b78c63          	beq	a5,a1,2424 <__floatsisf+0xba>
    2410:	0611                	addi	a2,a2,4
    2412:	00561793          	slli	a5,a2,0x5
    2416:	0007d763          	bgez	a5,2424 <__floatsisf+0xba>
    241a:	09f00793          	li	a5,159
    241e:	8e75                	and	a2,a2,a3
    2420:	40a78733          	sub	a4,a5,a0
    2424:	00661413          	slli	s0,a2,0x6
    2428:	8025                	srli	s0,s0,0x9
    242a:	0ff77793          	andi	a5,a4,255
    242e:	b751                	j	23b2 <__floatsisf+0x48>

00002430 <__clzsi2>:
    2430:	67c1                	lui	a5,0x10
    2432:	02f57c63          	bgeu	a0,a5,246a <__clzsi2+0x3a>
    2436:	0ff00793          	li	a5,255
    243a:	02000713          	li	a4,32
    243e:	00a7eb63          	bltu	a5,a0,2454 <__clzsi2+0x24>
    2442:	00001797          	auipc	a5,0x1
    2446:	4ce78793          	addi	a5,a5,1230 # 3910 <__clz_tab>
    244a:	97aa                	add	a5,a5,a0
    244c:	2388                	lbu	a0,0(a5)
    244e:	40a70533          	sub	a0,a4,a0
    2452:	8082                	ret
    2454:	8121                	srli	a0,a0,0x8
    2456:	00001797          	auipc	a5,0x1
    245a:	4ba78793          	addi	a5,a5,1210 # 3910 <__clz_tab>
    245e:	97aa                	add	a5,a5,a0
    2460:	2388                	lbu	a0,0(a5)
    2462:	4761                	li	a4,24
    2464:	40a70533          	sub	a0,a4,a0
    2468:	8082                	ret
    246a:	010007b7          	lui	a5,0x1000
    246e:	00f56d63          	bltu	a0,a5,2488 <__clzsi2+0x58>
    2472:	8161                	srli	a0,a0,0x18
    2474:	00001797          	auipc	a5,0x1
    2478:	49c78793          	addi	a5,a5,1180 # 3910 <__clz_tab>
    247c:	97aa                	add	a5,a5,a0
    247e:	2388                	lbu	a0,0(a5)
    2480:	4721                	li	a4,8
    2482:	40a70533          	sub	a0,a4,a0
    2486:	8082                	ret
    2488:	8141                	srli	a0,a0,0x10
    248a:	00001797          	auipc	a5,0x1
    248e:	48678793          	addi	a5,a5,1158 # 3910 <__clz_tab>
    2492:	97aa                	add	a5,a5,a0
    2494:	2388                	lbu	a0,0(a5)
    2496:	4741                	li	a4,16
    2498:	40a70533          	sub	a0,a4,a0
    249c:	8082                	ret

0000249e <memcpy>:
    249e:	00a5c7b3          	xor	a5,a1,a0
    24a2:	8b8d                	andi	a5,a5,3
    24a4:	00c50733          	add	a4,a0,a2
    24a8:	e781                	bnez	a5,24b0 <memcpy+0x12>
    24aa:	478d                	li	a5,3
    24ac:	00c7ed63          	bltu	a5,a2,24c6 <memcpy+0x28>
    24b0:	87aa                	mv	a5,a0
    24b2:	08e57e63          	bgeu	a0,a4,254e <memcpy+0xb0>
    24b6:	2194                	lbu	a3,0(a1)
    24b8:	0785                	addi	a5,a5,1
    24ba:	0585                	addi	a1,a1,1
    24bc:	fed78fa3          	sb	a3,-1(a5)
    24c0:	fee7ebe3          	bltu	a5,a4,24b6 <memcpy+0x18>
    24c4:	8082                	ret
    24c6:	00357693          	andi	a3,a0,3
    24ca:	87aa                	mv	a5,a0
    24cc:	ca89                	beqz	a3,24de <memcpy+0x40>
    24ce:	2194                	lbu	a3,0(a1)
    24d0:	0785                	addi	a5,a5,1
    24d2:	0585                	addi	a1,a1,1
    24d4:	fed78fa3          	sb	a3,-1(a5)
    24d8:	0037f693          	andi	a3,a5,3
    24dc:	bfc5                	j	24cc <memcpy+0x2e>
    24de:	ffc77693          	andi	a3,a4,-4
    24e2:	fe068613          	addi	a2,a3,-32 # fbffffe0 <_eusrstack+0xdbffafe0>
    24e6:	06c7f063          	bgeu	a5,a2,2546 <memcpy+0xa8>
    24ea:	0005a383          	lw	t2,0(a1)
    24ee:	0045a283          	lw	t0,4(a1)
    24f2:	0085af83          	lw	t6,8(a1)
    24f6:	00c5af03          	lw	t5,12(a1)
    24fa:	0105ae83          	lw	t4,16(a1)
    24fe:	0145ae03          	lw	t3,20(a1)
    2502:	0185a303          	lw	t1,24(a1)
    2506:	01c5a883          	lw	a7,28(a1)
    250a:	02458593          	addi	a1,a1,36
    250e:	0077a023          	sw	t2,0(a5)
    2512:	ffc5a803          	lw	a6,-4(a1)
    2516:	0057a223          	sw	t0,4(a5)
    251a:	01f7a423          	sw	t6,8(a5)
    251e:	01e7a623          	sw	t5,12(a5)
    2522:	01d7a823          	sw	t4,16(a5)
    2526:	01c7aa23          	sw	t3,20(a5)
    252a:	0067ac23          	sw	t1,24(a5)
    252e:	0117ae23          	sw	a7,28(a5)
    2532:	02478793          	addi	a5,a5,36
    2536:	ff07ae23          	sw	a6,-4(a5)
    253a:	b775                	j	24e6 <memcpy+0x48>
    253c:	4190                	lw	a2,0(a1)
    253e:	0791                	addi	a5,a5,4
    2540:	0591                	addi	a1,a1,4
    2542:	fec7ae23          	sw	a2,-4(a5)
    2546:	fed7ebe3          	bltu	a5,a3,253c <memcpy+0x9e>
    254a:	f6e7e6e3          	bltu	a5,a4,24b6 <memcpy+0x18>
    254e:	8082                	ret

00002550 <iprintf>:
    2550:	7139                	addi	sp,sp,-64
    2552:	da3e                	sw	a5,52(sp)
    2554:	d22e                	sw	a1,36(sp)
    2556:	d432                	sw	a2,40(sp)
    2558:	d636                	sw	a3,44(sp)
    255a:	d83a                	sw	a4,48(sp)
    255c:	dc42                	sw	a6,56(sp)
    255e:	de46                	sw	a7,60(sp)
    2560:	81418793          	addi	a5,gp,-2028 # 20000094 <_impure_ptr>
    2564:	cc22                	sw	s0,24(sp)
    2566:	4380                	lw	s0,0(a5)
    2568:	ca26                	sw	s1,20(sp)
    256a:	ce06                	sw	ra,28(sp)
    256c:	84aa                	mv	s1,a0
    256e:	c409                	beqz	s0,2578 <iprintf+0x28>
    2570:	4c1c                	lw	a5,24(s0)
    2572:	e399                	bnez	a5,2578 <iprintf+0x28>
    2574:	8522                	mv	a0,s0
    2576:	29fd                	jal	2a74 <__sinit>
    2578:	440c                	lw	a1,8(s0)
    257a:	1054                	addi	a3,sp,36
    257c:	8626                	mv	a2,s1
    257e:	8522                	mv	a0,s0
    2580:	c636                	sw	a3,12(sp)
    2582:	139000ef          	jal	ra,2eba <_vfiprintf_r>
    2586:	40f2                	lw	ra,28(sp)
    2588:	4462                	lw	s0,24(sp)
    258a:	44d2                	lw	s1,20(sp)
    258c:	6121                	addi	sp,sp,64
    258e:	8082                	ret

00002590 <_puts_r>:
    2590:	1101                	addi	sp,sp,-32
    2592:	ca26                	sw	s1,20(sp)
    2594:	c84a                	sw	s2,16(sp)
    2596:	ce06                	sw	ra,28(sp)
    2598:	cc22                	sw	s0,24(sp)
    259a:	c64e                	sw	s3,12(sp)
    259c:	c452                	sw	s4,8(sp)
    259e:	84aa                	mv	s1,a0
    25a0:	892e                	mv	s2,a1
    25a2:	c501                	beqz	a0,25aa <_puts_r+0x1a>
    25a4:	4d1c                	lw	a5,24(a0)
    25a6:	e391                	bnez	a5,25aa <_puts_r+0x1a>
    25a8:	21f1                	jal	2a74 <__sinit>
    25aa:	4c9c                	lw	a5,24(s1)
    25ac:	4480                	lw	s0,8(s1)
    25ae:	e399                	bnez	a5,25b4 <_puts_r+0x24>
    25b0:	8526                	mv	a0,s1
    25b2:	21c9                	jal	2a74 <__sinit>
    25b4:	00001797          	auipc	a5,0x1
    25b8:	47c78793          	addi	a5,a5,1148 # 3a30 <__sf_fake_stdin>
    25bc:	02f41b63          	bne	s0,a5,25f2 <_puts_r+0x62>
    25c0:	40c0                	lw	s0,4(s1)
    25c2:	245e                	lhu	a5,12(s0)
    25c4:	8ba1                	andi	a5,a5,8
    25c6:	c7b1                	beqz	a5,2612 <_puts_r+0x82>
    25c8:	481c                	lw	a5,16(s0)
    25ca:	c7a1                	beqz	a5,2612 <_puts_r+0x82>
    25cc:	59fd                	li	s3,-1
    25ce:	4a29                	li	s4,10
    25d0:	441c                	lw	a5,8(s0)
    25d2:	00094583          	lbu	a1,0(s2)
    25d6:	17fd                	addi	a5,a5,-1
    25d8:	e9b1                	bnez	a1,262c <_puts_r+0x9c>
    25da:	c41c                	sw	a5,8(s0)
    25dc:	0607dd63          	bgez	a5,2656 <_puts_r+0xc6>
    25e0:	8622                	mv	a2,s0
    25e2:	45a9                	li	a1,10
    25e4:	8526                	mv	a0,s1
    25e6:	2069                	jal	2670 <__swbuf_r>
    25e8:	57fd                	li	a5,-1
    25ea:	02f50863          	beq	a0,a5,261a <_puts_r+0x8a>
    25ee:	4529                	li	a0,10
    25f0:	a035                	j	261c <_puts_r+0x8c>
    25f2:	00001797          	auipc	a5,0x1
    25f6:	45e78793          	addi	a5,a5,1118 # 3a50 <__sf_fake_stdout>
    25fa:	00f41463          	bne	s0,a5,2602 <_puts_r+0x72>
    25fe:	4480                	lw	s0,8(s1)
    2600:	b7c9                	j	25c2 <_puts_r+0x32>
    2602:	00001797          	auipc	a5,0x1
    2606:	40e78793          	addi	a5,a5,1038 # 3a10 <__sf_fake_stderr>
    260a:	faf41ce3          	bne	s0,a5,25c2 <_puts_r+0x32>
    260e:	44c0                	lw	s0,12(s1)
    2610:	bf4d                	j	25c2 <_puts_r+0x32>
    2612:	85a2                	mv	a1,s0
    2614:	8526                	mv	a0,s1
    2616:	2a19                	jal	272c <__swsetup_r>
    2618:	d955                	beqz	a0,25cc <_puts_r+0x3c>
    261a:	557d                	li	a0,-1
    261c:	40f2                	lw	ra,28(sp)
    261e:	4462                	lw	s0,24(sp)
    2620:	44d2                	lw	s1,20(sp)
    2622:	4942                	lw	s2,16(sp)
    2624:	49b2                	lw	s3,12(sp)
    2626:	4a22                	lw	s4,8(sp)
    2628:	6105                	addi	sp,sp,32
    262a:	8082                	ret
    262c:	c41c                	sw	a5,8(s0)
    262e:	0905                	addi	s2,s2,1
    2630:	0007d763          	bgez	a5,263e <_puts_r+0xae>
    2634:	4c18                	lw	a4,24(s0)
    2636:	00e7ca63          	blt	a5,a4,264a <_puts_r+0xba>
    263a:	01458863          	beq	a1,s4,264a <_puts_r+0xba>
    263e:	401c                	lw	a5,0(s0)
    2640:	00178713          	addi	a4,a5,1
    2644:	c018                	sw	a4,0(s0)
    2646:	a38c                	sb	a1,0(a5)
    2648:	b761                	j	25d0 <_puts_r+0x40>
    264a:	8622                	mv	a2,s0
    264c:	8526                	mv	a0,s1
    264e:	200d                	jal	2670 <__swbuf_r>
    2650:	f93510e3          	bne	a0,s3,25d0 <_puts_r+0x40>
    2654:	b7d9                	j	261a <_puts_r+0x8a>
    2656:	401c                	lw	a5,0(s0)
    2658:	00178713          	addi	a4,a5,1
    265c:	c018                	sw	a4,0(s0)
    265e:	4729                	li	a4,10
    2660:	a398                	sb	a4,0(a5)
    2662:	b771                	j	25ee <_puts_r+0x5e>

00002664 <puts>:
    2664:	81418793          	addi	a5,gp,-2028 # 20000094 <_impure_ptr>
    2668:	85aa                	mv	a1,a0
    266a:	4388                	lw	a0,0(a5)
    266c:	f25ff06f          	j	2590 <_puts_r>

00002670 <__swbuf_r>:
    2670:	1101                	addi	sp,sp,-32
    2672:	cc22                	sw	s0,24(sp)
    2674:	ca26                	sw	s1,20(sp)
    2676:	c84a                	sw	s2,16(sp)
    2678:	ce06                	sw	ra,28(sp)
    267a:	c64e                	sw	s3,12(sp)
    267c:	84aa                	mv	s1,a0
    267e:	892e                	mv	s2,a1
    2680:	8432                	mv	s0,a2
    2682:	c501                	beqz	a0,268a <__swbuf_r+0x1a>
    2684:	4d1c                	lw	a5,24(a0)
    2686:	e391                	bnez	a5,268a <__swbuf_r+0x1a>
    2688:	26f5                	jal	2a74 <__sinit>
    268a:	00001797          	auipc	a5,0x1
    268e:	3a678793          	addi	a5,a5,934 # 3a30 <__sf_fake_stdin>
    2692:	06f41763          	bne	s0,a5,2700 <__swbuf_r+0x90>
    2696:	40c0                	lw	s0,4(s1)
    2698:	4c1c                	lw	a5,24(s0)
    269a:	c41c                	sw	a5,8(s0)
    269c:	245e                	lhu	a5,12(s0)
    269e:	8ba1                	andi	a5,a5,8
    26a0:	c3c1                	beqz	a5,2720 <__swbuf_r+0xb0>
    26a2:	481c                	lw	a5,16(s0)
    26a4:	cfb5                	beqz	a5,2720 <__swbuf_r+0xb0>
    26a6:	481c                	lw	a5,16(s0)
    26a8:	4008                	lw	a0,0(s0)
    26aa:	0ff97993          	andi	s3,s2,255
    26ae:	0ff97913          	andi	s2,s2,255
    26b2:	8d1d                	sub	a0,a0,a5
    26b4:	485c                	lw	a5,20(s0)
    26b6:	00f54663          	blt	a0,a5,26c2 <__swbuf_r+0x52>
    26ba:	85a2                	mv	a1,s0
    26bc:	8526                	mv	a0,s1
    26be:	2c69                	jal	2958 <_fflush_r>
    26c0:	e525                	bnez	a0,2728 <__swbuf_r+0xb8>
    26c2:	441c                	lw	a5,8(s0)
    26c4:	0505                	addi	a0,a0,1
    26c6:	17fd                	addi	a5,a5,-1
    26c8:	c41c                	sw	a5,8(s0)
    26ca:	401c                	lw	a5,0(s0)
    26cc:	00178713          	addi	a4,a5,1
    26d0:	c018                	sw	a4,0(s0)
    26d2:	01378023          	sb	s3,0(a5)
    26d6:	485c                	lw	a5,20(s0)
    26d8:	00a78863          	beq	a5,a0,26e8 <__swbuf_r+0x78>
    26dc:	245e                	lhu	a5,12(s0)
    26de:	8b85                	andi	a5,a5,1
    26e0:	cb81                	beqz	a5,26f0 <__swbuf_r+0x80>
    26e2:	47a9                	li	a5,10
    26e4:	00f91663          	bne	s2,a5,26f0 <__swbuf_r+0x80>
    26e8:	85a2                	mv	a1,s0
    26ea:	8526                	mv	a0,s1
    26ec:	24b5                	jal	2958 <_fflush_r>
    26ee:	ed0d                	bnez	a0,2728 <__swbuf_r+0xb8>
    26f0:	40f2                	lw	ra,28(sp)
    26f2:	4462                	lw	s0,24(sp)
    26f4:	854a                	mv	a0,s2
    26f6:	44d2                	lw	s1,20(sp)
    26f8:	4942                	lw	s2,16(sp)
    26fa:	49b2                	lw	s3,12(sp)
    26fc:	6105                	addi	sp,sp,32
    26fe:	8082                	ret
    2700:	00001797          	auipc	a5,0x1
    2704:	35078793          	addi	a5,a5,848 # 3a50 <__sf_fake_stdout>
    2708:	00f41463          	bne	s0,a5,2710 <__swbuf_r+0xa0>
    270c:	4480                	lw	s0,8(s1)
    270e:	b769                	j	2698 <__swbuf_r+0x28>
    2710:	00001797          	auipc	a5,0x1
    2714:	30078793          	addi	a5,a5,768 # 3a10 <__sf_fake_stderr>
    2718:	f8f410e3          	bne	s0,a5,2698 <__swbuf_r+0x28>
    271c:	44c0                	lw	s0,12(s1)
    271e:	bfad                	j	2698 <__swbuf_r+0x28>
    2720:	85a2                	mv	a1,s0
    2722:	8526                	mv	a0,s1
    2724:	2021                	jal	272c <__swsetup_r>
    2726:	d141                	beqz	a0,26a6 <__swbuf_r+0x36>
    2728:	597d                	li	s2,-1
    272a:	b7d9                	j	26f0 <__swbuf_r+0x80>

0000272c <__swsetup_r>:
    272c:	1141                	addi	sp,sp,-16
    272e:	81418793          	addi	a5,gp,-2028 # 20000094 <_impure_ptr>
    2732:	c226                	sw	s1,4(sp)
    2734:	4384                	lw	s1,0(a5)
    2736:	c422                	sw	s0,8(sp)
    2738:	c04a                	sw	s2,0(sp)
    273a:	c606                	sw	ra,12(sp)
    273c:	892a                	mv	s2,a0
    273e:	842e                	mv	s0,a1
    2740:	c489                	beqz	s1,274a <__swsetup_r+0x1e>
    2742:	4c9c                	lw	a5,24(s1)
    2744:	e399                	bnez	a5,274a <__swsetup_r+0x1e>
    2746:	8526                	mv	a0,s1
    2748:	2635                	jal	2a74 <__sinit>
    274a:	00001797          	auipc	a5,0x1
    274e:	2e678793          	addi	a5,a5,742 # 3a30 <__sf_fake_stdin>
    2752:	02f41b63          	bne	s0,a5,2788 <__swsetup_r+0x5c>
    2756:	40c0                	lw	s0,4(s1)
    2758:	00c41703          	lh	a4,12(s0)
    275c:	01071793          	slli	a5,a4,0x10
    2760:	83c1                	srli	a5,a5,0x10
    2762:	0087f693          	andi	a3,a5,8
    2766:	eaad                	bnez	a3,27d8 <__swsetup_r+0xac>
    2768:	0107f693          	andi	a3,a5,16
    276c:	ee95                	bnez	a3,27a8 <__swsetup_r+0x7c>
    276e:	47a5                	li	a5,9
    2770:	00f92023          	sw	a5,0(s2)
    2774:	04076713          	ori	a4,a4,64
    2778:	a45a                	sh	a4,12(s0)
    277a:	557d                	li	a0,-1
    277c:	40b2                	lw	ra,12(sp)
    277e:	4422                	lw	s0,8(sp)
    2780:	4492                	lw	s1,4(sp)
    2782:	4902                	lw	s2,0(sp)
    2784:	0141                	addi	sp,sp,16
    2786:	8082                	ret
    2788:	00001797          	auipc	a5,0x1
    278c:	2c878793          	addi	a5,a5,712 # 3a50 <__sf_fake_stdout>
    2790:	00f41463          	bne	s0,a5,2798 <__swsetup_r+0x6c>
    2794:	4480                	lw	s0,8(s1)
    2796:	b7c9                	j	2758 <__swsetup_r+0x2c>
    2798:	00001797          	auipc	a5,0x1
    279c:	27878793          	addi	a5,a5,632 # 3a10 <__sf_fake_stderr>
    27a0:	faf41ce3          	bne	s0,a5,2758 <__swsetup_r+0x2c>
    27a4:	44c0                	lw	s0,12(s1)
    27a6:	bf4d                	j	2758 <__swsetup_r+0x2c>
    27a8:	8b91                	andi	a5,a5,4
    27aa:	c39d                	beqz	a5,27d0 <__swsetup_r+0xa4>
    27ac:	584c                	lw	a1,52(s0)
    27ae:	c989                	beqz	a1,27c0 <__swsetup_r+0x94>
    27b0:	04440793          	addi	a5,s0,68
    27b4:	00f58463          	beq	a1,a5,27bc <__swsetup_r+0x90>
    27b8:	854a                	mv	a0,s2
    27ba:	2b29                	jal	2cd4 <_free_r>
    27bc:	02042a23          	sw	zero,52(s0)
    27c0:	245e                	lhu	a5,12(s0)
    27c2:	00042223          	sw	zero,4(s0)
    27c6:	fdb7f793          	andi	a5,a5,-37
    27ca:	a45e                	sh	a5,12(s0)
    27cc:	481c                	lw	a5,16(s0)
    27ce:	c01c                	sw	a5,0(s0)
    27d0:	245e                	lhu	a5,12(s0)
    27d2:	0087e793          	ori	a5,a5,8
    27d6:	a45e                	sh	a5,12(s0)
    27d8:	481c                	lw	a5,16(s0)
    27da:	eb99                	bnez	a5,27f0 <__swsetup_r+0xc4>
    27dc:	245e                	lhu	a5,12(s0)
    27de:	20000713          	li	a4,512
    27e2:	2807f793          	andi	a5,a5,640
    27e6:	00e78563          	beq	a5,a4,27f0 <__swsetup_r+0xc4>
    27ea:	85a2                	mv	a1,s0
    27ec:	854a                	mv	a0,s2
    27ee:	2991                	jal	2c42 <__smakebuf_r>
    27f0:	245e                	lhu	a5,12(s0)
    27f2:	0017f713          	andi	a4,a5,1
    27f6:	c31d                	beqz	a4,281c <__swsetup_r+0xf0>
    27f8:	485c                	lw	a5,20(s0)
    27fa:	00042423          	sw	zero,8(s0)
    27fe:	40f007b3          	neg	a5,a5
    2802:	cc1c                	sw	a5,24(s0)
    2804:	481c                	lw	a5,16(s0)
    2806:	4501                	li	a0,0
    2808:	fbb5                	bnez	a5,277c <__swsetup_r+0x50>
    280a:	00c41783          	lh	a5,12(s0)
    280e:	0807f713          	andi	a4,a5,128
    2812:	d72d                	beqz	a4,277c <__swsetup_r+0x50>
    2814:	0407e793          	ori	a5,a5,64
    2818:	a45e                	sh	a5,12(s0)
    281a:	b785                	j	277a <__swsetup_r+0x4e>
    281c:	8b89                	andi	a5,a5,2
    281e:	4701                	li	a4,0
    2820:	e391                	bnez	a5,2824 <__swsetup_r+0xf8>
    2822:	4858                	lw	a4,20(s0)
    2824:	c418                	sw	a4,8(s0)
    2826:	bff9                	j	2804 <__swsetup_r+0xd8>

00002828 <__sflush_r>:
    2828:	25de                	lhu	a5,12(a1)
    282a:	1101                	addi	sp,sp,-32
    282c:	cc22                	sw	s0,24(sp)
    282e:	ca26                	sw	s1,20(sp)
    2830:	ce06                	sw	ra,28(sp)
    2832:	c84a                	sw	s2,16(sp)
    2834:	c64e                	sw	s3,12(sp)
    2836:	0087f713          	andi	a4,a5,8
    283a:	84aa                	mv	s1,a0
    283c:	842e                	mv	s0,a1
    283e:	eb79                	bnez	a4,2914 <__sflush_r+0xec>
    2840:	41d8                	lw	a4,4(a1)
    2842:	00e04d63          	bgtz	a4,285c <__sflush_r+0x34>
    2846:	41b8                	lw	a4,64(a1)
    2848:	00e04a63          	bgtz	a4,285c <__sflush_r+0x34>
    284c:	4501                	li	a0,0
    284e:	40f2                	lw	ra,28(sp)
    2850:	4462                	lw	s0,24(sp)
    2852:	44d2                	lw	s1,20(sp)
    2854:	4942                	lw	s2,16(sp)
    2856:	49b2                	lw	s3,12(sp)
    2858:	6105                	addi	sp,sp,32
    285a:	8082                	ret
    285c:	5458                	lw	a4,44(s0)
    285e:	d77d                	beqz	a4,284c <__sflush_r+0x24>
    2860:	0004a903          	lw	s2,0(s1)
    2864:	01379693          	slli	a3,a5,0x13
    2868:	0004a023          	sw	zero,0(s1)
    286c:	0606db63          	bgez	a3,28e2 <__sflush_r+0xba>
    2870:	4870                	lw	a2,84(s0)
    2872:	245e                	lhu	a5,12(s0)
    2874:	8b91                	andi	a5,a5,4
    2876:	c799                	beqz	a5,2884 <__sflush_r+0x5c>
    2878:	405c                	lw	a5,4(s0)
    287a:	8e1d                	sub	a2,a2,a5
    287c:	585c                	lw	a5,52(s0)
    287e:	c399                	beqz	a5,2884 <__sflush_r+0x5c>
    2880:	403c                	lw	a5,64(s0)
    2882:	8e1d                	sub	a2,a2,a5
    2884:	545c                	lw	a5,44(s0)
    2886:	500c                	lw	a1,32(s0)
    2888:	4681                	li	a3,0
    288a:	8526                	mv	a0,s1
    288c:	9782                	jalr	a5
    288e:	57fd                	li	a5,-1
    2890:	245a                	lhu	a4,12(s0)
    2892:	00f51d63          	bne	a0,a5,28ac <__sflush_r+0x84>
    2896:	4094                	lw	a3,0(s1)
    2898:	47f5                	li	a5,29
    289a:	06d7e863          	bltu	a5,a3,290a <__sflush_r+0xe2>
    289e:	204007b7          	lui	a5,0x20400
    28a2:	0785                	addi	a5,a5,1
    28a4:	00d7d7b3          	srl	a5,a5,a3
    28a8:	8b85                	andi	a5,a5,1
    28aa:	c3a5                	beqz	a5,290a <__sflush_r+0xe2>
    28ac:	481c                	lw	a5,16(s0)
    28ae:	00042223          	sw	zero,4(s0)
    28b2:	c01c                	sw	a5,0(s0)
    28b4:	01371793          	slli	a5,a4,0x13
    28b8:	0007d863          	bgez	a5,28c8 <__sflush_r+0xa0>
    28bc:	57fd                	li	a5,-1
    28be:	00f51463          	bne	a0,a5,28c6 <__sflush_r+0x9e>
    28c2:	409c                	lw	a5,0(s1)
    28c4:	e391                	bnez	a5,28c8 <__sflush_r+0xa0>
    28c6:	c868                	sw	a0,84(s0)
    28c8:	584c                	lw	a1,52(s0)
    28ca:	0124a023          	sw	s2,0(s1)
    28ce:	ddbd                	beqz	a1,284c <__sflush_r+0x24>
    28d0:	04440793          	addi	a5,s0,68
    28d4:	00f58463          	beq	a1,a5,28dc <__sflush_r+0xb4>
    28d8:	8526                	mv	a0,s1
    28da:	2eed                	jal	2cd4 <_free_r>
    28dc:	02042a23          	sw	zero,52(s0)
    28e0:	b7b5                	j	284c <__sflush_r+0x24>
    28e2:	500c                	lw	a1,32(s0)
    28e4:	4601                	li	a2,0
    28e6:	4685                	li	a3,1
    28e8:	8526                	mv	a0,s1
    28ea:	9702                	jalr	a4
    28ec:	57fd                	li	a5,-1
    28ee:	862a                	mv	a2,a0
    28f0:	f8f511e3          	bne	a0,a5,2872 <__sflush_r+0x4a>
    28f4:	409c                	lw	a5,0(s1)
    28f6:	dfb5                	beqz	a5,2872 <__sflush_r+0x4a>
    28f8:	4775                	li	a4,29
    28fa:	00e78563          	beq	a5,a4,2904 <__sflush_r+0xdc>
    28fe:	4759                	li	a4,22
    2900:	04e79363          	bne	a5,a4,2946 <__sflush_r+0x11e>
    2904:	0124a023          	sw	s2,0(s1)
    2908:	b791                	j	284c <__sflush_r+0x24>
    290a:	04076713          	ori	a4,a4,64
    290e:	a45a                	sh	a4,12(s0)
    2910:	557d                	li	a0,-1
    2912:	bf35                	j	284e <__sflush_r+0x26>
    2914:	0105a983          	lw	s3,16(a1)
    2918:	f2098ae3          	beqz	s3,284c <__sflush_r+0x24>
    291c:	0005a903          	lw	s2,0(a1)
    2920:	8b8d                	andi	a5,a5,3
    2922:	0135a023          	sw	s3,0(a1)
    2926:	41390933          	sub	s2,s2,s3
    292a:	4701                	li	a4,0
    292c:	e391                	bnez	a5,2930 <__sflush_r+0x108>
    292e:	49d8                	lw	a4,20(a1)
    2930:	c418                	sw	a4,8(s0)
    2932:	f1205de3          	blez	s2,284c <__sflush_r+0x24>
    2936:	541c                	lw	a5,40(s0)
    2938:	500c                	lw	a1,32(s0)
    293a:	86ca                	mv	a3,s2
    293c:	864e                	mv	a2,s3
    293e:	8526                	mv	a0,s1
    2940:	9782                	jalr	a5
    2942:	00a04763          	bgtz	a0,2950 <__sflush_r+0x128>
    2946:	245e                	lhu	a5,12(s0)
    2948:	0407e793          	ori	a5,a5,64
    294c:	a45e                	sh	a5,12(s0)
    294e:	b7c9                	j	2910 <__sflush_r+0xe8>
    2950:	99aa                	add	s3,s3,a0
    2952:	40a90933          	sub	s2,s2,a0
    2956:	bff1                	j	2932 <__sflush_r+0x10a>

00002958 <_fflush_r>:
    2958:	499c                	lw	a5,16(a1)
    295a:	c3a5                	beqz	a5,29ba <_fflush_r+0x62>
    295c:	1101                	addi	sp,sp,-32
    295e:	cc22                	sw	s0,24(sp)
    2960:	ce06                	sw	ra,28(sp)
    2962:	842a                	mv	s0,a0
    2964:	c511                	beqz	a0,2970 <_fflush_r+0x18>
    2966:	4d1c                	lw	a5,24(a0)
    2968:	e781                	bnez	a5,2970 <_fflush_r+0x18>
    296a:	c62e                	sw	a1,12(sp)
    296c:	2221                	jal	2a74 <__sinit>
    296e:	45b2                	lw	a1,12(sp)
    2970:	00001797          	auipc	a5,0x1
    2974:	0c078793          	addi	a5,a5,192 # 3a30 <__sf_fake_stdin>
    2978:	00f59c63          	bne	a1,a5,2990 <_fflush_r+0x38>
    297c:	404c                	lw	a1,4(s0)
    297e:	00c59783          	lh	a5,12(a1)
    2982:	c79d                	beqz	a5,29b0 <_fflush_r+0x58>
    2984:	8522                	mv	a0,s0
    2986:	4462                	lw	s0,24(sp)
    2988:	40f2                	lw	ra,28(sp)
    298a:	6105                	addi	sp,sp,32
    298c:	e9dff06f          	j	2828 <__sflush_r>
    2990:	00001797          	auipc	a5,0x1
    2994:	0c078793          	addi	a5,a5,192 # 3a50 <__sf_fake_stdout>
    2998:	00f59463          	bne	a1,a5,29a0 <_fflush_r+0x48>
    299c:	440c                	lw	a1,8(s0)
    299e:	b7c5                	j	297e <_fflush_r+0x26>
    29a0:	00001797          	auipc	a5,0x1
    29a4:	07078793          	addi	a5,a5,112 # 3a10 <__sf_fake_stderr>
    29a8:	fcf59be3          	bne	a1,a5,297e <_fflush_r+0x26>
    29ac:	444c                	lw	a1,12(s0)
    29ae:	bfc1                	j	297e <_fflush_r+0x26>
    29b0:	40f2                	lw	ra,28(sp)
    29b2:	4462                	lw	s0,24(sp)
    29b4:	4501                	li	a0,0
    29b6:	6105                	addi	sp,sp,32
    29b8:	8082                	ret
    29ba:	4501                	li	a0,0
    29bc:	8082                	ret

000029be <std>:
    29be:	1141                	addi	sp,sp,-16
    29c0:	c422                	sw	s0,8(sp)
    29c2:	c606                	sw	ra,12(sp)
    29c4:	842a                	mv	s0,a0
    29c6:	a54e                	sh	a1,12(a0)
    29c8:	a572                	sh	a2,14(a0)
    29ca:	00052023          	sw	zero,0(a0)
    29ce:	00052223          	sw	zero,4(a0)
    29d2:	00052423          	sw	zero,8(a0)
    29d6:	06052223          	sw	zero,100(a0)
    29da:	00052823          	sw	zero,16(a0)
    29de:	00052a23          	sw	zero,20(a0)
    29e2:	00052c23          	sw	zero,24(a0)
    29e6:	4621                	li	a2,8
    29e8:	4581                	li	a1,0
    29ea:	05c50513          	addi	a0,a0,92
    29ee:	f72fd0ef          	jal	ra,160 <memset>
    29f2:	00001797          	auipc	a5,0x1
    29f6:	b2878793          	addi	a5,a5,-1240 # 351a <__sread>
    29fa:	d05c                	sw	a5,36(s0)
    29fc:	00001797          	auipc	a5,0x1
    2a00:	b4a78793          	addi	a5,a5,-1206 # 3546 <__swrite>
    2a04:	d41c                	sw	a5,40(s0)
    2a06:	00001797          	auipc	a5,0x1
    2a0a:	b8878793          	addi	a5,a5,-1144 # 358e <__sseek>
    2a0e:	d45c                	sw	a5,44(s0)
    2a10:	00001797          	auipc	a5,0x1
    2a14:	bae78793          	addi	a5,a5,-1106 # 35be <__sclose>
    2a18:	d000                	sw	s0,32(s0)
    2a1a:	d81c                	sw	a5,48(s0)
    2a1c:	40b2                	lw	ra,12(sp)
    2a1e:	4422                	lw	s0,8(sp)
    2a20:	0141                	addi	sp,sp,16
    2a22:	8082                	ret

00002a24 <_cleanup_r>:
    2a24:	00000597          	auipc	a1,0x0
    2a28:	f3458593          	addi	a1,a1,-204 # 2958 <_fflush_r>
    2a2c:	aa91                	j	2b80 <_fwalk_reent>

00002a2e <__sfmoreglue>:
    2a2e:	1141                	addi	sp,sp,-16
    2a30:	c226                	sw	s1,4(sp)
    2a32:	06800613          	li	a2,104
    2a36:	fff58493          	addi	s1,a1,-1
    2a3a:	02c484b3          	mul	s1,s1,a2
    2a3e:	c04a                	sw	s2,0(sp)
    2a40:	892e                	mv	s2,a1
    2a42:	c422                	sw	s0,8(sp)
    2a44:	c606                	sw	ra,12(sp)
    2a46:	07448593          	addi	a1,s1,116
    2a4a:	2e0d                	jal	2d7c <_malloc_r>
    2a4c:	842a                	mv	s0,a0
    2a4e:	cd01                	beqz	a0,2a66 <__sfmoreglue+0x38>
    2a50:	00052023          	sw	zero,0(a0)
    2a54:	01252223          	sw	s2,4(a0)
    2a58:	0531                	addi	a0,a0,12
    2a5a:	c408                	sw	a0,8(s0)
    2a5c:	06848613          	addi	a2,s1,104
    2a60:	4581                	li	a1,0
    2a62:	efefd0ef          	jal	ra,160 <memset>
    2a66:	8522                	mv	a0,s0
    2a68:	40b2                	lw	ra,12(sp)
    2a6a:	4422                	lw	s0,8(sp)
    2a6c:	4492                	lw	s1,4(sp)
    2a6e:	4902                	lw	s2,0(sp)
    2a70:	0141                	addi	sp,sp,16
    2a72:	8082                	ret

00002a74 <__sinit>:
    2a74:	4d1c                	lw	a5,24(a0)
    2a76:	e7a5                	bnez	a5,2ade <__sinit+0x6a>
    2a78:	1141                	addi	sp,sp,-16
    2a7a:	c606                	sw	ra,12(sp)
    2a7c:	c422                	sw	s0,8(sp)
    2a7e:	00000797          	auipc	a5,0x0
    2a82:	fa678793          	addi	a5,a5,-90 # 2a24 <_cleanup_r>
    2a86:	d51c                	sw	a5,40(a0)
    2a88:	81818793          	addi	a5,gp,-2024 # 20000098 <_global_impure_ptr>
    2a8c:	439c                	lw	a5,0(a5)
    2a8e:	04052423          	sw	zero,72(a0)
    2a92:	04052623          	sw	zero,76(a0)
    2a96:	04052823          	sw	zero,80(a0)
    2a9a:	00f51463          	bne	a0,a5,2aa2 <__sinit+0x2e>
    2a9e:	4785                	li	a5,1
    2aa0:	cd1c                	sw	a5,24(a0)
    2aa2:	842a                	mv	s0,a0
    2aa4:	2835                	jal	2ae0 <__sfp>
    2aa6:	c048                	sw	a0,4(s0)
    2aa8:	8522                	mv	a0,s0
    2aaa:	281d                	jal	2ae0 <__sfp>
    2aac:	c408                	sw	a0,8(s0)
    2aae:	8522                	mv	a0,s0
    2ab0:	2805                	jal	2ae0 <__sfp>
    2ab2:	c448                	sw	a0,12(s0)
    2ab4:	4048                	lw	a0,4(s0)
    2ab6:	4601                	li	a2,0
    2ab8:	4591                	li	a1,4
    2aba:	f05ff0ef          	jal	ra,29be <std>
    2abe:	4408                	lw	a0,8(s0)
    2ac0:	4605                	li	a2,1
    2ac2:	45a5                	li	a1,9
    2ac4:	efbff0ef          	jal	ra,29be <std>
    2ac8:	4448                	lw	a0,12(s0)
    2aca:	4609                	li	a2,2
    2acc:	45c9                	li	a1,18
    2ace:	ef1ff0ef          	jal	ra,29be <std>
    2ad2:	4785                	li	a5,1
    2ad4:	cc1c                	sw	a5,24(s0)
    2ad6:	40b2                	lw	ra,12(sp)
    2ad8:	4422                	lw	s0,8(sp)
    2ada:	0141                	addi	sp,sp,16
    2adc:	8082                	ret
    2ade:	8082                	ret

00002ae0 <__sfp>:
    2ae0:	1141                	addi	sp,sp,-16
    2ae2:	81818793          	addi	a5,gp,-2024 # 20000098 <_global_impure_ptr>
    2ae6:	c226                	sw	s1,4(sp)
    2ae8:	4384                	lw	s1,0(a5)
    2aea:	c04a                	sw	s2,0(sp)
    2aec:	c606                	sw	ra,12(sp)
    2aee:	4c9c                	lw	a5,24(s1)
    2af0:	c422                	sw	s0,8(sp)
    2af2:	892a                	mv	s2,a0
    2af4:	e781                	bnez	a5,2afc <__sfp+0x1c>
    2af6:	8526                	mv	a0,s1
    2af8:	f7dff0ef          	jal	ra,2a74 <__sinit>
    2afc:	04848493          	addi	s1,s1,72
    2b00:	4480                	lw	s0,8(s1)
    2b02:	40dc                	lw	a5,4(s1)
    2b04:	17fd                	addi	a5,a5,-1
    2b06:	0007d663          	bgez	a5,2b12 <__sfp+0x32>
    2b0a:	409c                	lw	a5,0(s1)
    2b0c:	cfb9                	beqz	a5,2b6a <__sfp+0x8a>
    2b0e:	4084                	lw	s1,0(s1)
    2b10:	bfc5                	j	2b00 <__sfp+0x20>
    2b12:	00c41703          	lh	a4,12(s0)
    2b16:	e739                	bnez	a4,2b64 <__sfp+0x84>
    2b18:	77c1                	lui	a5,0xffff0
    2b1a:	0785                	addi	a5,a5,1
    2b1c:	06042223          	sw	zero,100(s0)
    2b20:	00042023          	sw	zero,0(s0)
    2b24:	00042223          	sw	zero,4(s0)
    2b28:	00042423          	sw	zero,8(s0)
    2b2c:	c45c                	sw	a5,12(s0)
    2b2e:	00042823          	sw	zero,16(s0)
    2b32:	00042a23          	sw	zero,20(s0)
    2b36:	00042c23          	sw	zero,24(s0)
    2b3a:	4621                	li	a2,8
    2b3c:	4581                	li	a1,0
    2b3e:	05c40513          	addi	a0,s0,92
    2b42:	e1efd0ef          	jal	ra,160 <memset>
    2b46:	02042a23          	sw	zero,52(s0)
    2b4a:	02042c23          	sw	zero,56(s0)
    2b4e:	04042423          	sw	zero,72(s0)
    2b52:	04042623          	sw	zero,76(s0)
    2b56:	8522                	mv	a0,s0
    2b58:	40b2                	lw	ra,12(sp)
    2b5a:	4422                	lw	s0,8(sp)
    2b5c:	4492                	lw	s1,4(sp)
    2b5e:	4902                	lw	s2,0(sp)
    2b60:	0141                	addi	sp,sp,16
    2b62:	8082                	ret
    2b64:	06840413          	addi	s0,s0,104
    2b68:	bf71                	j	2b04 <__sfp+0x24>
    2b6a:	4591                	li	a1,4
    2b6c:	854a                	mv	a0,s2
    2b6e:	ec1ff0ef          	jal	ra,2a2e <__sfmoreglue>
    2b72:	c088                	sw	a0,0(s1)
    2b74:	fd49                	bnez	a0,2b0e <__sfp+0x2e>
    2b76:	47b1                	li	a5,12
    2b78:	00f92023          	sw	a5,0(s2)
    2b7c:	4401                	li	s0,0
    2b7e:	bfe1                	j	2b56 <__sfp+0x76>

00002b80 <_fwalk_reent>:
    2b80:	7179                	addi	sp,sp,-48
    2b82:	d422                	sw	s0,40(sp)
    2b84:	d04a                	sw	s2,32(sp)
    2b86:	cc52                	sw	s4,24(sp)
    2b88:	ca56                	sw	s5,20(sp)
    2b8a:	c85a                	sw	s6,16(sp)
    2b8c:	c65e                	sw	s7,12(sp)
    2b8e:	d606                	sw	ra,44(sp)
    2b90:	d226                	sw	s1,36(sp)
    2b92:	ce4e                	sw	s3,28(sp)
    2b94:	8a2a                	mv	s4,a0
    2b96:	8aae                	mv	s5,a1
    2b98:	04850413          	addi	s0,a0,72
    2b9c:	4901                	li	s2,0
    2b9e:	4b05                	li	s6,1
    2ba0:	5bfd                	li	s7,-1
    2ba2:	ec09                	bnez	s0,2bbc <_fwalk_reent+0x3c>
    2ba4:	50b2                	lw	ra,44(sp)
    2ba6:	5422                	lw	s0,40(sp)
    2ba8:	854a                	mv	a0,s2
    2baa:	5492                	lw	s1,36(sp)
    2bac:	5902                	lw	s2,32(sp)
    2bae:	49f2                	lw	s3,28(sp)
    2bb0:	4a62                	lw	s4,24(sp)
    2bb2:	4ad2                	lw	s5,20(sp)
    2bb4:	4b42                	lw	s6,16(sp)
    2bb6:	4bb2                	lw	s7,12(sp)
    2bb8:	6145                	addi	sp,sp,48
    2bba:	8082                	ret
    2bbc:	4404                	lw	s1,8(s0)
    2bbe:	00442983          	lw	s3,4(s0)
    2bc2:	19fd                	addi	s3,s3,-1
    2bc4:	0009d463          	bgez	s3,2bcc <_fwalk_reent+0x4c>
    2bc8:	4000                	lw	s0,0(s0)
    2bca:	bfe1                	j	2ba2 <_fwalk_reent+0x22>
    2bcc:	24de                	lhu	a5,12(s1)
    2bce:	00fb7b63          	bgeu	s6,a5,2be4 <_fwalk_reent+0x64>
    2bd2:	00e49783          	lh	a5,14(s1)
    2bd6:	01778763          	beq	a5,s7,2be4 <_fwalk_reent+0x64>
    2bda:	85a6                	mv	a1,s1
    2bdc:	8552                	mv	a0,s4
    2bde:	9a82                	jalr	s5
    2be0:	00a96933          	or	s2,s2,a0
    2be4:	06848493          	addi	s1,s1,104
    2be8:	bfe9                	j	2bc2 <_fwalk_reent+0x42>

00002bea <__swhatbuf_r>:
    2bea:	7119                	addi	sp,sp,-128
    2bec:	daa6                	sw	s1,116(sp)
    2bee:	84ae                	mv	s1,a1
    2bf0:	00e59583          	lh	a1,14(a1)
    2bf4:	dca2                	sw	s0,120(sp)
    2bf6:	de86                	sw	ra,124(sp)
    2bf8:	8432                	mv	s0,a2
    2bfa:	0005db63          	bgez	a1,2c10 <__swhatbuf_r+0x26>
    2bfe:	24de                	lhu	a5,12(s1)
    2c00:	0006a023          	sw	zero,0(a3)
    2c04:	0807f793          	andi	a5,a5,128
    2c08:	e785                	bnez	a5,2c30 <__swhatbuf_r+0x46>
    2c0a:	40000793          	li	a5,1024
    2c0e:	a01d                	j	2c34 <__swhatbuf_r+0x4a>
    2c10:	0830                	addi	a2,sp,24
    2c12:	c636                	sw	a3,12(sp)
    2c14:	207000ef          	jal	ra,361a <_fstat_r>
    2c18:	46b2                	lw	a3,12(sp)
    2c1a:	fe0542e3          	bltz	a0,2bfe <__swhatbuf_r+0x14>
    2c1e:	4772                	lw	a4,28(sp)
    2c20:	67bd                	lui	a5,0xf
    2c22:	8ff9                	and	a5,a5,a4
    2c24:	7779                	lui	a4,0xffffe
    2c26:	97ba                	add	a5,a5,a4
    2c28:	0017b793          	seqz	a5,a5
    2c2c:	c29c                	sw	a5,0(a3)
    2c2e:	bff1                	j	2c0a <__swhatbuf_r+0x20>
    2c30:	04000793          	li	a5,64
    2c34:	c01c                	sw	a5,0(s0)
    2c36:	50f6                	lw	ra,124(sp)
    2c38:	5466                	lw	s0,120(sp)
    2c3a:	54d6                	lw	s1,116(sp)
    2c3c:	4501                	li	a0,0
    2c3e:	6109                	addi	sp,sp,128
    2c40:	8082                	ret

00002c42 <__smakebuf_r>:
    2c42:	25de                	lhu	a5,12(a1)
    2c44:	1101                	addi	sp,sp,-32
    2c46:	cc22                	sw	s0,24(sp)
    2c48:	ce06                	sw	ra,28(sp)
    2c4a:	ca26                	sw	s1,20(sp)
    2c4c:	c84a                	sw	s2,16(sp)
    2c4e:	8b89                	andi	a5,a5,2
    2c50:	842e                	mv	s0,a1
    2c52:	cf89                	beqz	a5,2c6c <__smakebuf_r+0x2a>
    2c54:	04740793          	addi	a5,s0,71
    2c58:	c01c                	sw	a5,0(s0)
    2c5a:	c81c                	sw	a5,16(s0)
    2c5c:	4785                	li	a5,1
    2c5e:	c85c                	sw	a5,20(s0)
    2c60:	40f2                	lw	ra,28(sp)
    2c62:	4462                	lw	s0,24(sp)
    2c64:	44d2                	lw	s1,20(sp)
    2c66:	4942                	lw	s2,16(sp)
    2c68:	6105                	addi	sp,sp,32
    2c6a:	8082                	ret
    2c6c:	0074                	addi	a3,sp,12
    2c6e:	0030                	addi	a2,sp,8
    2c70:	84aa                	mv	s1,a0
    2c72:	f79ff0ef          	jal	ra,2bea <__swhatbuf_r>
    2c76:	45a2                	lw	a1,8(sp)
    2c78:	892a                	mv	s2,a0
    2c7a:	8526                	mv	a0,s1
    2c7c:	2201                	jal	2d7c <_malloc_r>
    2c7e:	e919                	bnez	a0,2c94 <__smakebuf_r+0x52>
    2c80:	00c41783          	lh	a5,12(s0)
    2c84:	2007f713          	andi	a4,a5,512
    2c88:	ff61                	bnez	a4,2c60 <__smakebuf_r+0x1e>
    2c8a:	9bf1                	andi	a5,a5,-4
    2c8c:	0027e793          	ori	a5,a5,2
    2c90:	a45e                	sh	a5,12(s0)
    2c92:	b7c9                	j	2c54 <__smakebuf_r+0x12>
    2c94:	00000797          	auipc	a5,0x0
    2c98:	d9078793          	addi	a5,a5,-624 # 2a24 <_cleanup_r>
    2c9c:	d49c                	sw	a5,40(s1)
    2c9e:	245e                	lhu	a5,12(s0)
    2ca0:	c008                	sw	a0,0(s0)
    2ca2:	c808                	sw	a0,16(s0)
    2ca4:	0807e793          	ori	a5,a5,128
    2ca8:	a45e                	sh	a5,12(s0)
    2caa:	47a2                	lw	a5,8(sp)
    2cac:	c85c                	sw	a5,20(s0)
    2cae:	47b2                	lw	a5,12(sp)
    2cb0:	cf81                	beqz	a5,2cc8 <__smakebuf_r+0x86>
    2cb2:	00e41583          	lh	a1,14(s0)
    2cb6:	8526                	mv	a0,s1
    2cb8:	18d000ef          	jal	ra,3644 <_isatty_r>
    2cbc:	c511                	beqz	a0,2cc8 <__smakebuf_r+0x86>
    2cbe:	245e                	lhu	a5,12(s0)
    2cc0:	9bf1                	andi	a5,a5,-4
    2cc2:	0017e793          	ori	a5,a5,1
    2cc6:	a45e                	sh	a5,12(s0)
    2cc8:	245e                	lhu	a5,12(s0)
    2cca:	00f96933          	or	s2,s2,a5
    2cce:	01241623          	sh	s2,12(s0)
    2cd2:	b779                	j	2c60 <__smakebuf_r+0x1e>

00002cd4 <_free_r>:
    2cd4:	c1dd                	beqz	a1,2d7a <_free_r+0xa6>
    2cd6:	ffc5a783          	lw	a5,-4(a1)
    2cda:	1141                	addi	sp,sp,-16
    2cdc:	c422                	sw	s0,8(sp)
    2cde:	c606                	sw	ra,12(sp)
    2ce0:	c226                	sw	s1,4(sp)
    2ce2:	ffc58413          	addi	s0,a1,-4
    2ce6:	0007d363          	bgez	a5,2cec <_free_r+0x18>
    2cea:	943e                	add	s0,s0,a5
    2cec:	84aa                	mv	s1,a0
    2cee:	1c3000ef          	jal	ra,36b0 <__malloc_lock>
    2cf2:	85418793          	addi	a5,gp,-1964 # 200000d4 <__malloc_free_list>
    2cf6:	439c                	lw	a5,0(a5)
    2cf8:	ef81                	bnez	a5,2d10 <_free_r+0x3c>
    2cfa:	00042223          	sw	zero,4(s0)
    2cfe:	8481aa23          	sw	s0,-1964(gp) # 200000d4 <__malloc_free_list>
    2d02:	4422                	lw	s0,8(sp)
    2d04:	40b2                	lw	ra,12(sp)
    2d06:	8526                	mv	a0,s1
    2d08:	4492                	lw	s1,4(sp)
    2d0a:	0141                	addi	sp,sp,16
    2d0c:	1a70006f          	j	36b2 <__malloc_unlock>
    2d10:	00f47e63          	bgeu	s0,a5,2d2c <_free_r+0x58>
    2d14:	4014                	lw	a3,0(s0)
    2d16:	00d40733          	add	a4,s0,a3
    2d1a:	00e79663          	bne	a5,a4,2d26 <_free_r+0x52>
    2d1e:	4398                	lw	a4,0(a5)
    2d20:	43dc                	lw	a5,4(a5)
    2d22:	9736                	add	a4,a4,a3
    2d24:	c018                	sw	a4,0(s0)
    2d26:	c05c                	sw	a5,4(s0)
    2d28:	bfd9                	j	2cfe <_free_r+0x2a>
    2d2a:	87ba                	mv	a5,a4
    2d2c:	43d8                	lw	a4,4(a5)
    2d2e:	c319                	beqz	a4,2d34 <_free_r+0x60>
    2d30:	fee47de3          	bgeu	s0,a4,2d2a <_free_r+0x56>
    2d34:	4394                	lw	a3,0(a5)
    2d36:	00d78633          	add	a2,a5,a3
    2d3a:	00861f63          	bne	a2,s0,2d58 <_free_r+0x84>
    2d3e:	4010                	lw	a2,0(s0)
    2d40:	96b2                	add	a3,a3,a2
    2d42:	c394                	sw	a3,0(a5)
    2d44:	00d78633          	add	a2,a5,a3
    2d48:	fac71de3          	bne	a4,a2,2d02 <_free_r+0x2e>
    2d4c:	4310                	lw	a2,0(a4)
    2d4e:	4358                	lw	a4,4(a4)
    2d50:	96b2                	add	a3,a3,a2
    2d52:	c394                	sw	a3,0(a5)
    2d54:	c3d8                	sw	a4,4(a5)
    2d56:	b775                	j	2d02 <_free_r+0x2e>
    2d58:	00c47563          	bgeu	s0,a2,2d62 <_free_r+0x8e>
    2d5c:	47b1                	li	a5,12
    2d5e:	c09c                	sw	a5,0(s1)
    2d60:	b74d                	j	2d02 <_free_r+0x2e>
    2d62:	4010                	lw	a2,0(s0)
    2d64:	00c406b3          	add	a3,s0,a2
    2d68:	00d71663          	bne	a4,a3,2d74 <_free_r+0xa0>
    2d6c:	4314                	lw	a3,0(a4)
    2d6e:	4358                	lw	a4,4(a4)
    2d70:	96b2                	add	a3,a3,a2
    2d72:	c014                	sw	a3,0(s0)
    2d74:	c058                	sw	a4,4(s0)
    2d76:	c3c0                	sw	s0,4(a5)
    2d78:	b769                	j	2d02 <_free_r+0x2e>
    2d7a:	8082                	ret

00002d7c <_malloc_r>:
    2d7c:	1101                	addi	sp,sp,-32
    2d7e:	ca26                	sw	s1,20(sp)
    2d80:	00358493          	addi	s1,a1,3
    2d84:	98f1                	andi	s1,s1,-4
    2d86:	ce06                	sw	ra,28(sp)
    2d88:	cc22                	sw	s0,24(sp)
    2d8a:	c84a                	sw	s2,16(sp)
    2d8c:	c64e                	sw	s3,12(sp)
    2d8e:	04a1                	addi	s1,s1,8
    2d90:	47b1                	li	a5,12
    2d92:	04f4f363          	bgeu	s1,a5,2dd8 <_malloc_r+0x5c>
    2d96:	44b1                	li	s1,12
    2d98:	04b4e263          	bltu	s1,a1,2ddc <_malloc_r+0x60>
    2d9c:	892a                	mv	s2,a0
    2d9e:	113000ef          	jal	ra,36b0 <__malloc_lock>
    2da2:	85418793          	addi	a5,gp,-1964 # 200000d4 <__malloc_free_list>
    2da6:	4398                	lw	a4,0(a5)
    2da8:	843a                	mv	s0,a4
    2daa:	e039                	bnez	s0,2df0 <_malloc_r+0x74>
    2dac:	85818793          	addi	a5,gp,-1960 # 200000d8 <__malloc_sbrk_start>
    2db0:	439c                	lw	a5,0(a5)
    2db2:	e791                	bnez	a5,2dbe <_malloc_r+0x42>
    2db4:	4581                	li	a1,0
    2db6:	854a                	mv	a0,s2
    2db8:	2f25                	jal	34f0 <_sbrk_r>
    2dba:	84a1ac23          	sw	a0,-1960(gp) # 200000d8 <__malloc_sbrk_start>
    2dbe:	85a6                	mv	a1,s1
    2dc0:	854a                	mv	a0,s2
    2dc2:	273d                	jal	34f0 <_sbrk_r>
    2dc4:	59fd                	li	s3,-1
    2dc6:	07351963          	bne	a0,s3,2e38 <_malloc_r+0xbc>
    2dca:	47b1                	li	a5,12
    2dcc:	00f92023          	sw	a5,0(s2)
    2dd0:	854a                	mv	a0,s2
    2dd2:	0e1000ef          	jal	ra,36b2 <__malloc_unlock>
    2dd6:	a029                	j	2de0 <_malloc_r+0x64>
    2dd8:	fc04d0e3          	bgez	s1,2d98 <_malloc_r+0x1c>
    2ddc:	47b1                	li	a5,12
    2dde:	c11c                	sw	a5,0(a0)
    2de0:	4501                	li	a0,0
    2de2:	40f2                	lw	ra,28(sp)
    2de4:	4462                	lw	s0,24(sp)
    2de6:	44d2                	lw	s1,20(sp)
    2de8:	4942                	lw	s2,16(sp)
    2dea:	49b2                	lw	s3,12(sp)
    2dec:	6105                	addi	sp,sp,32
    2dee:	8082                	ret
    2df0:	401c                	lw	a5,0(s0)
    2df2:	8f85                	sub	a5,a5,s1
    2df4:	0207cf63          	bltz	a5,2e32 <_malloc_r+0xb6>
    2df8:	46ad                	li	a3,11
    2dfa:	00f6f663          	bgeu	a3,a5,2e06 <_malloc_r+0x8a>
    2dfe:	c01c                	sw	a5,0(s0)
    2e00:	943e                	add	s0,s0,a5
    2e02:	c004                	sw	s1,0(s0)
    2e04:	a031                	j	2e10 <_malloc_r+0x94>
    2e06:	405c                	lw	a5,4(s0)
    2e08:	02871363          	bne	a4,s0,2e2e <_malloc_r+0xb2>
    2e0c:	84f1aa23          	sw	a5,-1964(gp) # 200000d4 <__malloc_free_list>
    2e10:	854a                	mv	a0,s2
    2e12:	0a1000ef          	jal	ra,36b2 <__malloc_unlock>
    2e16:	00b40513          	addi	a0,s0,11
    2e1a:	00440793          	addi	a5,s0,4
    2e1e:	9961                	andi	a0,a0,-8
    2e20:	40f50733          	sub	a4,a0,a5
    2e24:	df5d                	beqz	a4,2de2 <_malloc_r+0x66>
    2e26:	943a                	add	s0,s0,a4
    2e28:	8f89                	sub	a5,a5,a0
    2e2a:	c01c                	sw	a5,0(s0)
    2e2c:	bf5d                	j	2de2 <_malloc_r+0x66>
    2e2e:	c35c                	sw	a5,4(a4)
    2e30:	b7c5                	j	2e10 <_malloc_r+0x94>
    2e32:	8722                	mv	a4,s0
    2e34:	4040                	lw	s0,4(s0)
    2e36:	bf95                	j	2daa <_malloc_r+0x2e>
    2e38:	00350413          	addi	s0,a0,3
    2e3c:	9871                	andi	s0,s0,-4
    2e3e:	fc8502e3          	beq	a0,s0,2e02 <_malloc_r+0x86>
    2e42:	40a405b3          	sub	a1,s0,a0
    2e46:	854a                	mv	a0,s2
    2e48:	2565                	jal	34f0 <_sbrk_r>
    2e4a:	fb351ce3          	bne	a0,s3,2e02 <_malloc_r+0x86>
    2e4e:	bfb5                	j	2dca <_malloc_r+0x4e>

00002e50 <__sfputc_r>:
    2e50:	461c                	lw	a5,8(a2)
    2e52:	17fd                	addi	a5,a5,-1
    2e54:	c61c                	sw	a5,8(a2)
    2e56:	0007da63          	bgez	a5,2e6a <__sfputc_r+0x1a>
    2e5a:	4e18                	lw	a4,24(a2)
    2e5c:	00e7c563          	blt	a5,a4,2e66 <__sfputc_r+0x16>
    2e60:	47a9                	li	a5,10
    2e62:	00f59463          	bne	a1,a5,2e6a <__sfputc_r+0x1a>
    2e66:	80bff06f          	j	2670 <__swbuf_r>
    2e6a:	421c                	lw	a5,0(a2)
    2e6c:	852e                	mv	a0,a1
    2e6e:	00178713          	addi	a4,a5,1
    2e72:	c218                	sw	a4,0(a2)
    2e74:	a38c                	sb	a1,0(a5)
    2e76:	8082                	ret

00002e78 <__sfputs_r>:
    2e78:	1101                	addi	sp,sp,-32
    2e7a:	cc22                	sw	s0,24(sp)
    2e7c:	ca26                	sw	s1,20(sp)
    2e7e:	c84a                	sw	s2,16(sp)
    2e80:	c64e                	sw	s3,12(sp)
    2e82:	c452                	sw	s4,8(sp)
    2e84:	ce06                	sw	ra,28(sp)
    2e86:	892a                	mv	s2,a0
    2e88:	89ae                	mv	s3,a1
    2e8a:	8432                	mv	s0,a2
    2e8c:	00d604b3          	add	s1,a2,a3
    2e90:	5a7d                	li	s4,-1
    2e92:	00941463          	bne	s0,s1,2e9a <__sfputs_r+0x22>
    2e96:	4501                	li	a0,0
    2e98:	a809                	j	2eaa <__sfputs_r+0x32>
    2e9a:	200c                	lbu	a1,0(s0)
    2e9c:	864e                	mv	a2,s3
    2e9e:	854a                	mv	a0,s2
    2ea0:	fb1ff0ef          	jal	ra,2e50 <__sfputc_r>
    2ea4:	0405                	addi	s0,s0,1
    2ea6:	ff4516e3          	bne	a0,s4,2e92 <__sfputs_r+0x1a>
    2eaa:	40f2                	lw	ra,28(sp)
    2eac:	4462                	lw	s0,24(sp)
    2eae:	44d2                	lw	s1,20(sp)
    2eb0:	4942                	lw	s2,16(sp)
    2eb2:	49b2                	lw	s3,12(sp)
    2eb4:	4a22                	lw	s4,8(sp)
    2eb6:	6105                	addi	sp,sp,32
    2eb8:	8082                	ret

00002eba <_vfiprintf_r>:
    2eba:	7135                	addi	sp,sp,-160
    2ebc:	cd22                	sw	s0,152(sp)
    2ebe:	cb26                	sw	s1,148(sp)
    2ec0:	c94a                	sw	s2,144(sp)
    2ec2:	c74e                	sw	s3,140(sp)
    2ec4:	cf06                	sw	ra,156(sp)
    2ec6:	c552                	sw	s4,136(sp)
    2ec8:	c356                	sw	s5,132(sp)
    2eca:	c15a                	sw	s6,128(sp)
    2ecc:	dede                	sw	s7,124(sp)
    2ece:	dce2                	sw	s8,120(sp)
    2ed0:	dae6                	sw	s9,116(sp)
    2ed2:	89aa                	mv	s3,a0
    2ed4:	84ae                	mv	s1,a1
    2ed6:	8932                	mv	s2,a2
    2ed8:	8436                	mv	s0,a3
    2eda:	c509                	beqz	a0,2ee4 <_vfiprintf_r+0x2a>
    2edc:	4d1c                	lw	a5,24(a0)
    2ede:	e399                	bnez	a5,2ee4 <_vfiprintf_r+0x2a>
    2ee0:	b95ff0ef          	jal	ra,2a74 <__sinit>
    2ee4:	00001797          	auipc	a5,0x1
    2ee8:	b4c78793          	addi	a5,a5,-1204 # 3a30 <__sf_fake_stdin>
    2eec:	0cf49863          	bne	s1,a5,2fbc <_vfiprintf_r+0x102>
    2ef0:	0049a483          	lw	s1,4(s3)
    2ef4:	24de                	lhu	a5,12(s1)
    2ef6:	8ba1                	andi	a5,a5,8
    2ef8:	c7e5                	beqz	a5,2fe0 <_vfiprintf_r+0x126>
    2efa:	489c                	lw	a5,16(s1)
    2efc:	c3f5                	beqz	a5,2fe0 <_vfiprintf_r+0x126>
    2efe:	02000793          	li	a5,32
    2f02:	02f104a3          	sb	a5,41(sp)
    2f06:	03000793          	li	a5,48
    2f0a:	d202                	sw	zero,36(sp)
    2f0c:	02f10523          	sb	a5,42(sp)
    2f10:	c622                	sw	s0,12(sp)
    2f12:	02500b93          	li	s7,37
    2f16:	00001a97          	auipc	s5,0x1
    2f1a:	b5aa8a93          	addi	s5,s5,-1190 # 3a70 <__sf_fake_stdout+0x20>
    2f1e:	4c05                	li	s8,1
    2f20:	4b29                	li	s6,10
    2f22:	844a                	mv	s0,s2
    2f24:	201c                	lbu	a5,0(s0)
    2f26:	c399                	beqz	a5,2f2c <_vfiprintf_r+0x72>
    2f28:	0d779f63          	bne	a5,s7,3006 <_vfiprintf_r+0x14c>
    2f2c:	41240cb3          	sub	s9,s0,s2
    2f30:	000c8e63          	beqz	s9,2f4c <_vfiprintf_r+0x92>
    2f34:	86e6                	mv	a3,s9
    2f36:	864a                	mv	a2,s2
    2f38:	85a6                	mv	a1,s1
    2f3a:	854e                	mv	a0,s3
    2f3c:	f3dff0ef          	jal	ra,2e78 <__sfputs_r>
    2f40:	57fd                	li	a5,-1
    2f42:	1cf50f63          	beq	a0,a5,3120 <_vfiprintf_r+0x266>
    2f46:	5692                	lw	a3,36(sp)
    2f48:	96e6                	add	a3,a3,s9
    2f4a:	d236                	sw	a3,36(sp)
    2f4c:	201c                	lbu	a5,0(s0)
    2f4e:	1c078963          	beqz	a5,3120 <_vfiprintf_r+0x266>
    2f52:	57fd                	li	a5,-1
    2f54:	00140913          	addi	s2,s0,1
    2f58:	c802                	sw	zero,16(sp)
    2f5a:	ce02                	sw	zero,28(sp)
    2f5c:	ca3e                	sw	a5,20(sp)
    2f5e:	cc02                	sw	zero,24(sp)
    2f60:	040109a3          	sb	zero,83(sp)
    2f64:	d482                	sw	zero,104(sp)
    2f66:	00094583          	lbu	a1,0(s2)
    2f6a:	4615                	li	a2,5
    2f6c:	8556                	mv	a0,s5
    2f6e:	272d                	jal	3698 <memchr>
    2f70:	00190413          	addi	s0,s2,1
    2f74:	47c2                	lw	a5,16(sp)
    2f76:	e951                	bnez	a0,300a <_vfiprintf_r+0x150>
    2f78:	0107f713          	andi	a4,a5,16
    2f7c:	c709                	beqz	a4,2f86 <_vfiprintf_r+0xcc>
    2f7e:	02000713          	li	a4,32
    2f82:	04e109a3          	sb	a4,83(sp)
    2f86:	0087f713          	andi	a4,a5,8
    2f8a:	c709                	beqz	a4,2f94 <_vfiprintf_r+0xda>
    2f8c:	02b00713          	li	a4,43
    2f90:	04e109a3          	sb	a4,83(sp)
    2f94:	00094683          	lbu	a3,0(s2)
    2f98:	02a00713          	li	a4,42
    2f9c:	06e68f63          	beq	a3,a4,301a <_vfiprintf_r+0x160>
    2fa0:	47f2                	lw	a5,28(sp)
    2fa2:	844a                	mv	s0,s2
    2fa4:	4681                	li	a3,0
    2fa6:	4625                	li	a2,9
    2fa8:	2018                	lbu	a4,0(s0)
    2faa:	00140593          	addi	a1,s0,1
    2fae:	fd070713          	addi	a4,a4,-48 # ffffdfd0 <_eusrstack+0xdfff8fd0>
    2fb2:	0ae67763          	bgeu	a2,a4,3060 <_vfiprintf_r+0x1a6>
    2fb6:	cab5                	beqz	a3,302a <_vfiprintf_r+0x170>
    2fb8:	ce3e                	sw	a5,28(sp)
    2fba:	a885                	j	302a <_vfiprintf_r+0x170>
    2fbc:	00001797          	auipc	a5,0x1
    2fc0:	a9478793          	addi	a5,a5,-1388 # 3a50 <__sf_fake_stdout>
    2fc4:	00f49563          	bne	s1,a5,2fce <_vfiprintf_r+0x114>
    2fc8:	0089a483          	lw	s1,8(s3)
    2fcc:	b725                	j	2ef4 <_vfiprintf_r+0x3a>
    2fce:	00001797          	auipc	a5,0x1
    2fd2:	a4278793          	addi	a5,a5,-1470 # 3a10 <__sf_fake_stderr>
    2fd6:	f0f49fe3          	bne	s1,a5,2ef4 <_vfiprintf_r+0x3a>
    2fda:	00c9a483          	lw	s1,12(s3)
    2fde:	bf19                	j	2ef4 <_vfiprintf_r+0x3a>
    2fe0:	85a6                	mv	a1,s1
    2fe2:	854e                	mv	a0,s3
    2fe4:	f48ff0ef          	jal	ra,272c <__swsetup_r>
    2fe8:	d919                	beqz	a0,2efe <_vfiprintf_r+0x44>
    2fea:	557d                	li	a0,-1
    2fec:	40fa                	lw	ra,156(sp)
    2fee:	446a                	lw	s0,152(sp)
    2ff0:	44da                	lw	s1,148(sp)
    2ff2:	494a                	lw	s2,144(sp)
    2ff4:	49ba                	lw	s3,140(sp)
    2ff6:	4a2a                	lw	s4,136(sp)
    2ff8:	4a9a                	lw	s5,132(sp)
    2ffa:	4b0a                	lw	s6,128(sp)
    2ffc:	5bf6                	lw	s7,124(sp)
    2ffe:	5c66                	lw	s8,120(sp)
    3000:	5cd6                	lw	s9,116(sp)
    3002:	610d                	addi	sp,sp,160
    3004:	8082                	ret
    3006:	0405                	addi	s0,s0,1
    3008:	bf31                	j	2f24 <_vfiprintf_r+0x6a>
    300a:	41550533          	sub	a0,a0,s5
    300e:	00ac1533          	sll	a0,s8,a0
    3012:	8fc9                	or	a5,a5,a0
    3014:	c83e                	sw	a5,16(sp)
    3016:	8922                	mv	s2,s0
    3018:	b7b9                	j	2f66 <_vfiprintf_r+0xac>
    301a:	4732                	lw	a4,12(sp)
    301c:	00470693          	addi	a3,a4,4
    3020:	4318                	lw	a4,0(a4)
    3022:	c636                	sw	a3,12(sp)
    3024:	02074763          	bltz	a4,3052 <_vfiprintf_r+0x198>
    3028:	ce3a                	sw	a4,28(sp)
    302a:	2018                	lbu	a4,0(s0)
    302c:	02e00793          	li	a5,46
    3030:	04f71d63          	bne	a4,a5,308a <_vfiprintf_r+0x1d0>
    3034:	3018                	lbu	a4,1(s0)
    3036:	02a00793          	li	a5,42
    303a:	02f71b63          	bne	a4,a5,3070 <_vfiprintf_r+0x1b6>
    303e:	47b2                	lw	a5,12(sp)
    3040:	0409                	addi	s0,s0,2
    3042:	00478713          	addi	a4,a5,4
    3046:	439c                	lw	a5,0(a5)
    3048:	c63a                	sw	a4,12(sp)
    304a:	0207c163          	bltz	a5,306c <_vfiprintf_r+0x1b2>
    304e:	ca3e                	sw	a5,20(sp)
    3050:	a82d                	j	308a <_vfiprintf_r+0x1d0>
    3052:	40e00733          	neg	a4,a4
    3056:	0027e793          	ori	a5,a5,2
    305a:	ce3a                	sw	a4,28(sp)
    305c:	c83e                	sw	a5,16(sp)
    305e:	b7f1                	j	302a <_vfiprintf_r+0x170>
    3060:	036787b3          	mul	a5,a5,s6
    3064:	4685                	li	a3,1
    3066:	842e                	mv	s0,a1
    3068:	97ba                	add	a5,a5,a4
    306a:	bf3d                	j	2fa8 <_vfiprintf_r+0xee>
    306c:	57fd                	li	a5,-1
    306e:	b7c5                	j	304e <_vfiprintf_r+0x194>
    3070:	0405                	addi	s0,s0,1
    3072:	ca02                	sw	zero,20(sp)
    3074:	4681                	li	a3,0
    3076:	4781                	li	a5,0
    3078:	4625                	li	a2,9
    307a:	2018                	lbu	a4,0(s0)
    307c:	00140593          	addi	a1,s0,1
    3080:	fd070713          	addi	a4,a4,-48
    3084:	06e67463          	bgeu	a2,a4,30ec <_vfiprintf_r+0x232>
    3088:	f2f9                	bnez	a3,304e <_vfiprintf_r+0x194>
    308a:	200c                	lbu	a1,0(s0)
    308c:	460d                	li	a2,3
    308e:	00001517          	auipc	a0,0x1
    3092:	9ea50513          	addi	a0,a0,-1558 # 3a78 <__sf_fake_stdout+0x28>
    3096:	2509                	jal	3698 <memchr>
    3098:	cd11                	beqz	a0,30b4 <_vfiprintf_r+0x1fa>
    309a:	00001797          	auipc	a5,0x1
    309e:	9de78793          	addi	a5,a5,-1570 # 3a78 <__sf_fake_stdout+0x28>
    30a2:	8d1d                	sub	a0,a0,a5
    30a4:	04000793          	li	a5,64
    30a8:	00a797b3          	sll	a5,a5,a0
    30ac:	4542                	lw	a0,16(sp)
    30ae:	0405                	addi	s0,s0,1
    30b0:	8d5d                	or	a0,a0,a5
    30b2:	c82a                	sw	a0,16(sp)
    30b4:	200c                	lbu	a1,0(s0)
    30b6:	4619                	li	a2,6
    30b8:	00001517          	auipc	a0,0x1
    30bc:	9c450513          	addi	a0,a0,-1596 # 3a7c <__sf_fake_stdout+0x2c>
    30c0:	00140913          	addi	s2,s0,1
    30c4:	02b10423          	sb	a1,40(sp)
    30c8:	2bc1                	jal	3698 <memchr>
    30ca:	c135                	beqz	a0,312e <_vfiprintf_r+0x274>
    30cc:	ffffd797          	auipc	a5,0xffffd
    30d0:	f3478793          	addi	a5,a5,-204 # 0 <_sinit>
    30d4:	e795                	bnez	a5,3100 <_vfiprintf_r+0x246>
    30d6:	4742                	lw	a4,16(sp)
    30d8:	47b2                	lw	a5,12(sp)
    30da:	10077713          	andi	a4,a4,256
    30de:	cf09                	beqz	a4,30f8 <_vfiprintf_r+0x23e>
    30e0:	0791                	addi	a5,a5,4
    30e2:	c63e                	sw	a5,12(sp)
    30e4:	5792                	lw	a5,36(sp)
    30e6:	97d2                	add	a5,a5,s4
    30e8:	d23e                	sw	a5,36(sp)
    30ea:	bd25                	j	2f22 <_vfiprintf_r+0x68>
    30ec:	036787b3          	mul	a5,a5,s6
    30f0:	4685                	li	a3,1
    30f2:	842e                	mv	s0,a1
    30f4:	97ba                	add	a5,a5,a4
    30f6:	b751                	j	307a <_vfiprintf_r+0x1c0>
    30f8:	079d                	addi	a5,a5,7
    30fa:	9be1                	andi	a5,a5,-8
    30fc:	07a1                	addi	a5,a5,8
    30fe:	b7d5                	j	30e2 <_vfiprintf_r+0x228>
    3100:	0078                	addi	a4,sp,12
    3102:	00000697          	auipc	a3,0x0
    3106:	d7668693          	addi	a3,a3,-650 # 2e78 <__sfputs_r>
    310a:	8626                	mv	a2,s1
    310c:	080c                	addi	a1,sp,16
    310e:	854e                	mv	a0,s3
    3110:	00000097          	auipc	ra,0x0
    3114:	000000e7          	jalr	zero # 0 <_sinit>
    3118:	57fd                	li	a5,-1
    311a:	8a2a                	mv	s4,a0
    311c:	fcf514e3          	bne	a0,a5,30e4 <_vfiprintf_r+0x22a>
    3120:	24de                	lhu	a5,12(s1)
    3122:	0407f793          	andi	a5,a5,64
    3126:	ec0792e3          	bnez	a5,2fea <_vfiprintf_r+0x130>
    312a:	5512                	lw	a0,36(sp)
    312c:	b5c1                	j	2fec <_vfiprintf_r+0x132>
    312e:	0078                	addi	a4,sp,12
    3130:	00000697          	auipc	a3,0x0
    3134:	d4868693          	addi	a3,a3,-696 # 2e78 <__sfputs_r>
    3138:	8626                	mv	a2,s1
    313a:	080c                	addi	a1,sp,16
    313c:	854e                	mv	a0,s3
    313e:	2a01                	jal	324e <_printf_i>
    3140:	bfe1                	j	3118 <_vfiprintf_r+0x25e>

00003142 <_printf_common>:
    3142:	7179                	addi	sp,sp,-48
    3144:	ca56                	sw	s5,20(sp)
    3146:	499c                	lw	a5,16(a1)
    3148:	8aba                	mv	s5,a4
    314a:	4598                	lw	a4,8(a1)
    314c:	d422                	sw	s0,40(sp)
    314e:	d226                	sw	s1,36(sp)
    3150:	ce4e                	sw	s3,28(sp)
    3152:	cc52                	sw	s4,24(sp)
    3154:	d606                	sw	ra,44(sp)
    3156:	d04a                	sw	s2,32(sp)
    3158:	c85a                	sw	s6,16(sp)
    315a:	c65e                	sw	s7,12(sp)
    315c:	89aa                	mv	s3,a0
    315e:	842e                	mv	s0,a1
    3160:	84b2                	mv	s1,a2
    3162:	8a36                	mv	s4,a3
    3164:	00e7d363          	bge	a5,a4,316a <_printf_common+0x28>
    3168:	87ba                	mv	a5,a4
    316a:	c09c                	sw	a5,0(s1)
    316c:	04344703          	lbu	a4,67(s0)
    3170:	c319                	beqz	a4,3176 <_printf_common+0x34>
    3172:	0785                	addi	a5,a5,1
    3174:	c09c                	sw	a5,0(s1)
    3176:	401c                	lw	a5,0(s0)
    3178:	0207f793          	andi	a5,a5,32
    317c:	c781                	beqz	a5,3184 <_printf_common+0x42>
    317e:	409c                	lw	a5,0(s1)
    3180:	0789                	addi	a5,a5,2
    3182:	c09c                	sw	a5,0(s1)
    3184:	00042903          	lw	s2,0(s0)
    3188:	00697913          	andi	s2,s2,6
    318c:	00091a63          	bnez	s2,31a0 <_printf_common+0x5e>
    3190:	01940b13          	addi	s6,s0,25
    3194:	5bfd                	li	s7,-1
    3196:	445c                	lw	a5,12(s0)
    3198:	4098                	lw	a4,0(s1)
    319a:	8f99                	sub	a5,a5,a4
    319c:	04f94c63          	blt	s2,a5,31f4 <_printf_common+0xb2>
    31a0:	401c                	lw	a5,0(s0)
    31a2:	04344683          	lbu	a3,67(s0)
    31a6:	0207f793          	andi	a5,a5,32
    31aa:	00d036b3          	snez	a3,a3
    31ae:	eba5                	bnez	a5,321e <_printf_common+0xdc>
    31b0:	04340613          	addi	a2,s0,67
    31b4:	85d2                	mv	a1,s4
    31b6:	854e                	mv	a0,s3
    31b8:	9a82                	jalr	s5
    31ba:	57fd                	li	a5,-1
    31bc:	04f50363          	beq	a0,a5,3202 <_printf_common+0xc0>
    31c0:	401c                	lw	a5,0(s0)
    31c2:	4611                	li	a2,4
    31c4:	4098                	lw	a4,0(s1)
    31c6:	8b99                	andi	a5,a5,6
    31c8:	4454                	lw	a3,12(s0)
    31ca:	4481                	li	s1,0
    31cc:	00c79763          	bne	a5,a2,31da <_printf_common+0x98>
    31d0:	40e684b3          	sub	s1,a3,a4
    31d4:	0004d363          	bgez	s1,31da <_printf_common+0x98>
    31d8:	4481                	li	s1,0
    31da:	441c                	lw	a5,8(s0)
    31dc:	4818                	lw	a4,16(s0)
    31de:	00f75463          	bge	a4,a5,31e6 <_printf_common+0xa4>
    31e2:	8f99                	sub	a5,a5,a4
    31e4:	94be                	add	s1,s1,a5
    31e6:	4901                	li	s2,0
    31e8:	0469                	addi	s0,s0,26
    31ea:	5b7d                	li	s6,-1
    31ec:	05249863          	bne	s1,s2,323c <_printf_common+0xfa>
    31f0:	4501                	li	a0,0
    31f2:	a809                	j	3204 <_printf_common+0xc2>
    31f4:	4685                	li	a3,1
    31f6:	865a                	mv	a2,s6
    31f8:	85d2                	mv	a1,s4
    31fa:	854e                	mv	a0,s3
    31fc:	9a82                	jalr	s5
    31fe:	01751e63          	bne	a0,s7,321a <_printf_common+0xd8>
    3202:	557d                	li	a0,-1
    3204:	50b2                	lw	ra,44(sp)
    3206:	5422                	lw	s0,40(sp)
    3208:	5492                	lw	s1,36(sp)
    320a:	5902                	lw	s2,32(sp)
    320c:	49f2                	lw	s3,28(sp)
    320e:	4a62                	lw	s4,24(sp)
    3210:	4ad2                	lw	s5,20(sp)
    3212:	4b42                	lw	s6,16(sp)
    3214:	4bb2                	lw	s7,12(sp)
    3216:	6145                	addi	sp,sp,48
    3218:	8082                	ret
    321a:	0905                	addi	s2,s2,1
    321c:	bfad                	j	3196 <_printf_common+0x54>
    321e:	00d40733          	add	a4,s0,a3
    3222:	03000613          	li	a2,48
    3226:	04c701a3          	sb	a2,67(a4)
    322a:	04544703          	lbu	a4,69(s0)
    322e:	00168793          	addi	a5,a3,1
    3232:	97a2                	add	a5,a5,s0
    3234:	0689                	addi	a3,a3,2
    3236:	04e781a3          	sb	a4,67(a5)
    323a:	bf9d                	j	31b0 <_printf_common+0x6e>
    323c:	4685                	li	a3,1
    323e:	8622                	mv	a2,s0
    3240:	85d2                	mv	a1,s4
    3242:	854e                	mv	a0,s3
    3244:	9a82                	jalr	s5
    3246:	fb650ee3          	beq	a0,s6,3202 <_printf_common+0xc0>
    324a:	0905                	addi	s2,s2,1
    324c:	b745                	j	31ec <_printf_common+0xaa>

0000324e <_printf_i>:
    324e:	7179                	addi	sp,sp,-48
    3250:	d422                	sw	s0,40(sp)
    3252:	d226                	sw	s1,36(sp)
    3254:	d04a                	sw	s2,32(sp)
    3256:	ce4e                	sw	s3,28(sp)
    3258:	d606                	sw	ra,44(sp)
    325a:	cc52                	sw	s4,24(sp)
    325c:	ca56                	sw	s5,20(sp)
    325e:	c85a                	sw	s6,16(sp)
    3260:	89b6                	mv	s3,a3
    3262:	2d94                	lbu	a3,24(a1)
    3264:	06900793          	li	a5,105
    3268:	8932                	mv	s2,a2
    326a:	84aa                	mv	s1,a0
    326c:	842e                	mv	s0,a1
    326e:	04358613          	addi	a2,a1,67
    3272:	02f68d63          	beq	a3,a5,32ac <_printf_i+0x5e>
    3276:	06d7e263          	bltu	a5,a3,32da <_printf_i+0x8c>
    327a:	05800793          	li	a5,88
    327e:	18f68663          	beq	a3,a5,340a <_printf_i+0x1bc>
    3282:	00d7ed63          	bltu	a5,a3,329c <_printf_i+0x4e>
    3286:	20068e63          	beqz	a3,34a2 <_printf_i+0x254>
    328a:	04300793          	li	a5,67
    328e:	0af68e63          	beq	a3,a5,334a <_printf_i+0xfc>
    3292:	04240a93          	addi	s5,s0,66
    3296:	04d40123          	sb	a3,66(s0)
    329a:	a0c9                	j	335c <_printf_i+0x10e>
    329c:	06300793          	li	a5,99
    32a0:	0af68563          	beq	a3,a5,334a <_printf_i+0xfc>
    32a4:	06400793          	li	a5,100
    32a8:	fef695e3          	bne	a3,a5,3292 <_printf_i+0x44>
    32ac:	401c                	lw	a5,0(s0)
    32ae:	4308                	lw	a0,0(a4)
    32b0:	0807f693          	andi	a3,a5,128
    32b4:	00450593          	addi	a1,a0,4
    32b8:	c6c5                	beqz	a3,3360 <_printf_i+0x112>
    32ba:	411c                	lw	a5,0(a0)
    32bc:	c30c                	sw	a1,0(a4)
    32be:	0007d863          	bgez	a5,32ce <_printf_i+0x80>
    32c2:	02d00713          	li	a4,45
    32c6:	40f007b3          	neg	a5,a5
    32ca:	04e401a3          	sb	a4,67(s0)
    32ce:	00000697          	auipc	a3,0x0
    32d2:	7b668693          	addi	a3,a3,1974 # 3a84 <__sf_fake_stdout+0x34>
    32d6:	4729                	li	a4,10
    32d8:	a865                	j	3390 <_printf_i+0x142>
    32da:	07000793          	li	a5,112
    32de:	16f68263          	beq	a3,a5,3442 <_printf_i+0x1f4>
    32e2:	02d7e563          	bltu	a5,a3,330c <_printf_i+0xbe>
    32e6:	06e00793          	li	a5,110
    32ea:	18f68963          	beq	a3,a5,347c <_printf_i+0x22e>
    32ee:	06f00793          	li	a5,111
    32f2:	faf690e3          	bne	a3,a5,3292 <_printf_i+0x44>
    32f6:	400c                	lw	a1,0(s0)
    32f8:	431c                	lw	a5,0(a4)
    32fa:	0805f813          	andi	a6,a1,128
    32fe:	00478513          	addi	a0,a5,4
    3302:	06080763          	beqz	a6,3370 <_printf_i+0x122>
    3306:	c308                	sw	a0,0(a4)
    3308:	439c                	lw	a5,0(a5)
    330a:	a885                	j	337a <_printf_i+0x12c>
    330c:	07500793          	li	a5,117
    3310:	fef683e3          	beq	a3,a5,32f6 <_printf_i+0xa8>
    3314:	07800793          	li	a5,120
    3318:	12f68963          	beq	a3,a5,344a <_printf_i+0x1fc>
    331c:	07300793          	li	a5,115
    3320:	f6f699e3          	bne	a3,a5,3292 <_printf_i+0x44>
    3324:	431c                	lw	a5,0(a4)
    3326:	41d0                	lw	a2,4(a1)
    3328:	4581                	li	a1,0
    332a:	00478693          	addi	a3,a5,4
    332e:	c314                	sw	a3,0(a4)
    3330:	0007aa83          	lw	s5,0(a5)
    3334:	8556                	mv	a0,s5
    3336:	268d                	jal	3698 <memchr>
    3338:	c501                	beqz	a0,3340 <_printf_i+0xf2>
    333a:	41550533          	sub	a0,a0,s5
    333e:	c048                	sw	a0,4(s0)
    3340:	405c                	lw	a5,4(s0)
    3342:	c81c                	sw	a5,16(s0)
    3344:	040401a3          	sb	zero,67(s0)
    3348:	a861                	j	33e0 <_printf_i+0x192>
    334a:	431c                	lw	a5,0(a4)
    334c:	04240a93          	addi	s5,s0,66
    3350:	00478693          	addi	a3,a5,4
    3354:	439c                	lw	a5,0(a5)
    3356:	c314                	sw	a3,0(a4)
    3358:	04f40123          	sb	a5,66(s0)
    335c:	4785                	li	a5,1
    335e:	b7d5                	j	3342 <_printf_i+0xf4>
    3360:	0407f693          	andi	a3,a5,64
    3364:	411c                	lw	a5,0(a0)
    3366:	c30c                	sw	a1,0(a4)
    3368:	dab9                	beqz	a3,32be <_printf_i+0x70>
    336a:	07c2                	slli	a5,a5,0x10
    336c:	87c1                	srai	a5,a5,0x10
    336e:	bf81                	j	32be <_printf_i+0x70>
    3370:	0405f593          	andi	a1,a1,64
    3374:	c308                	sw	a0,0(a4)
    3376:	d9c9                	beqz	a1,3308 <_printf_i+0xba>
    3378:	239e                	lhu	a5,0(a5)
    337a:	06f00713          	li	a4,111
    337e:	0ee68763          	beq	a3,a4,346c <_printf_i+0x21e>
    3382:	00000697          	auipc	a3,0x0
    3386:	70268693          	addi	a3,a3,1794 # 3a84 <__sf_fake_stdout+0x34>
    338a:	4729                	li	a4,10
    338c:	040401a3          	sb	zero,67(s0)
    3390:	404c                	lw	a1,4(s0)
    3392:	c40c                	sw	a1,8(s0)
    3394:	0005c563          	bltz	a1,339e <_printf_i+0x150>
    3398:	4008                	lw	a0,0(s0)
    339a:	996d                	andi	a0,a0,-5
    339c:	c008                	sw	a0,0(s0)
    339e:	e399                	bnez	a5,33a4 <_printf_i+0x156>
    33a0:	8ab2                	mv	s5,a2
    33a2:	cd89                	beqz	a1,33bc <_printf_i+0x16e>
    33a4:	8ab2                	mv	s5,a2
    33a6:	02e7f5b3          	remu	a1,a5,a4
    33aa:	1afd                	addi	s5,s5,-1
    33ac:	95b6                	add	a1,a1,a3
    33ae:	218c                	lbu	a1,0(a1)
    33b0:	00ba8023          	sb	a1,0(s5)
    33b4:	02e7d5b3          	divu	a1,a5,a4
    33b8:	0ce7f063          	bgeu	a5,a4,3478 <_printf_i+0x22a>
    33bc:	47a1                	li	a5,8
    33be:	00f71e63          	bne	a4,a5,33da <_printf_i+0x18c>
    33c2:	401c                	lw	a5,0(s0)
    33c4:	8b85                	andi	a5,a5,1
    33c6:	cb91                	beqz	a5,33da <_printf_i+0x18c>
    33c8:	4058                	lw	a4,4(s0)
    33ca:	481c                	lw	a5,16(s0)
    33cc:	00e7c763          	blt	a5,a4,33da <_printf_i+0x18c>
    33d0:	03000793          	li	a5,48
    33d4:	fefa8fa3          	sb	a5,-1(s5)
    33d8:	1afd                	addi	s5,s5,-1
    33da:	41560633          	sub	a2,a2,s5
    33de:	c810                	sw	a2,16(s0)
    33e0:	874e                	mv	a4,s3
    33e2:	86ca                	mv	a3,s2
    33e4:	0070                	addi	a2,sp,12
    33e6:	85a2                	mv	a1,s0
    33e8:	8526                	mv	a0,s1
    33ea:	d59ff0ef          	jal	ra,3142 <_printf_common>
    33ee:	5a7d                	li	s4,-1
    33f0:	0b451d63          	bne	a0,s4,34aa <_printf_i+0x25c>
    33f4:	557d                	li	a0,-1
    33f6:	50b2                	lw	ra,44(sp)
    33f8:	5422                	lw	s0,40(sp)
    33fa:	5492                	lw	s1,36(sp)
    33fc:	5902                	lw	s2,32(sp)
    33fe:	49f2                	lw	s3,28(sp)
    3400:	4a62                	lw	s4,24(sp)
    3402:	4ad2                	lw	s5,20(sp)
    3404:	4b42                	lw	s6,16(sp)
    3406:	6145                	addi	sp,sp,48
    3408:	8082                	ret
    340a:	04d582a3          	sb	a3,69(a1)
    340e:	00000697          	auipc	a3,0x0
    3412:	67668693          	addi	a3,a3,1654 # 3a84 <__sf_fake_stdout+0x34>
    3416:	400c                	lw	a1,0(s0)
    3418:	4308                	lw	a0,0(a4)
    341a:	0805f813          	andi	a6,a1,128
    341e:	411c                	lw	a5,0(a0)
    3420:	0511                	addi	a0,a0,4
    3422:	02080d63          	beqz	a6,345c <_printf_i+0x20e>
    3426:	c308                	sw	a0,0(a4)
    3428:	0015f713          	andi	a4,a1,1
    342c:	c701                	beqz	a4,3434 <_printf_i+0x1e6>
    342e:	0205e593          	ori	a1,a1,32
    3432:	c00c                	sw	a1,0(s0)
    3434:	4741                	li	a4,16
    3436:	fbb9                	bnez	a5,338c <_printf_i+0x13e>
    3438:	400c                	lw	a1,0(s0)
    343a:	fdf5f593          	andi	a1,a1,-33
    343e:	c00c                	sw	a1,0(s0)
    3440:	b7b1                	j	338c <_printf_i+0x13e>
    3442:	419c                	lw	a5,0(a1)
    3444:	0207e793          	ori	a5,a5,32
    3448:	c19c                	sw	a5,0(a1)
    344a:	07800793          	li	a5,120
    344e:	04f402a3          	sb	a5,69(s0)
    3452:	00000697          	auipc	a3,0x0
    3456:	64668693          	addi	a3,a3,1606 # 3a98 <__sf_fake_stdout+0x48>
    345a:	bf75                	j	3416 <_printf_i+0x1c8>
    345c:	0405f813          	andi	a6,a1,64
    3460:	c308                	sw	a0,0(a4)
    3462:	fc0803e3          	beqz	a6,3428 <_printf_i+0x1da>
    3466:	07c2                	slli	a5,a5,0x10
    3468:	83c1                	srli	a5,a5,0x10
    346a:	bf7d                	j	3428 <_printf_i+0x1da>
    346c:	00000697          	auipc	a3,0x0
    3470:	61868693          	addi	a3,a3,1560 # 3a84 <__sf_fake_stdout+0x34>
    3474:	4721                	li	a4,8
    3476:	bf19                	j	338c <_printf_i+0x13e>
    3478:	87ae                	mv	a5,a1
    347a:	b735                	j	33a6 <_printf_i+0x158>
    347c:	4194                	lw	a3,0(a1)
    347e:	431c                	lw	a5,0(a4)
    3480:	49cc                	lw	a1,20(a1)
    3482:	0806f813          	andi	a6,a3,128
    3486:	00478513          	addi	a0,a5,4
    348a:	00080663          	beqz	a6,3496 <_printf_i+0x248>
    348e:	c308                	sw	a0,0(a4)
    3490:	439c                	lw	a5,0(a5)
    3492:	c38c                	sw	a1,0(a5)
    3494:	a039                	j	34a2 <_printf_i+0x254>
    3496:	c308                	sw	a0,0(a4)
    3498:	0406f693          	andi	a3,a3,64
    349c:	439c                	lw	a5,0(a5)
    349e:	daf5                	beqz	a3,3492 <_printf_i+0x244>
    34a0:	a38e                	sh	a1,0(a5)
    34a2:	00042823          	sw	zero,16(s0)
    34a6:	8ab2                	mv	s5,a2
    34a8:	bf25                	j	33e0 <_printf_i+0x192>
    34aa:	4814                	lw	a3,16(s0)
    34ac:	8656                	mv	a2,s5
    34ae:	85ca                	mv	a1,s2
    34b0:	8526                	mv	a0,s1
    34b2:	9982                	jalr	s3
    34b4:	f54500e3          	beq	a0,s4,33f4 <_printf_i+0x1a6>
    34b8:	401c                	lw	a5,0(s0)
    34ba:	8b89                	andi	a5,a5,2
    34bc:	e78d                	bnez	a5,34e6 <_printf_i+0x298>
    34be:	47b2                	lw	a5,12(sp)
    34c0:	4448                	lw	a0,12(s0)
    34c2:	f2f55ae3          	bge	a0,a5,33f6 <_printf_i+0x1a8>
    34c6:	853e                	mv	a0,a5
    34c8:	b73d                	j	33f6 <_printf_i+0x1a8>
    34ca:	4685                	li	a3,1
    34cc:	8656                	mv	a2,s5
    34ce:	85ca                	mv	a1,s2
    34d0:	8526                	mv	a0,s1
    34d2:	9982                	jalr	s3
    34d4:	f36500e3          	beq	a0,s6,33f4 <_printf_i+0x1a6>
    34d8:	0a05                	addi	s4,s4,1
    34da:	445c                	lw	a5,12(s0)
    34dc:	4732                	lw	a4,12(sp)
    34de:	8f99                	sub	a5,a5,a4
    34e0:	fefa45e3          	blt	s4,a5,34ca <_printf_i+0x27c>
    34e4:	bfe9                	j	34be <_printf_i+0x270>
    34e6:	4a01                	li	s4,0
    34e8:	01940a93          	addi	s5,s0,25
    34ec:	5b7d                	li	s6,-1
    34ee:	b7f5                	j	34da <_printf_i+0x28c>

000034f0 <_sbrk_r>:
    34f0:	1141                	addi	sp,sp,-16
    34f2:	c422                	sw	s0,8(sp)
    34f4:	842a                	mv	s0,a0
    34f6:	852e                	mv	a0,a1
    34f8:	9001aa23          	sw	zero,-1772(gp) # 20000194 <errno>
    34fc:	c606                	sw	ra,12(sp)
    34fe:	bd0fe0ef          	jal	ra,18ce <_sbrk>
    3502:	57fd                	li	a5,-1
    3504:	00f51763          	bne	a0,a5,3512 <_sbrk_r+0x22>
    3508:	91418793          	addi	a5,gp,-1772 # 20000194 <errno>
    350c:	439c                	lw	a5,0(a5)
    350e:	c391                	beqz	a5,3512 <_sbrk_r+0x22>
    3510:	c01c                	sw	a5,0(s0)
    3512:	40b2                	lw	ra,12(sp)
    3514:	4422                	lw	s0,8(sp)
    3516:	0141                	addi	sp,sp,16
    3518:	8082                	ret

0000351a <__sread>:
    351a:	1141                	addi	sp,sp,-16
    351c:	c422                	sw	s0,8(sp)
    351e:	842e                	mv	s0,a1
    3520:	00e59583          	lh	a1,14(a1)
    3524:	c606                	sw	ra,12(sp)
    3526:	2279                	jal	36b4 <_read_r>
    3528:	00054963          	bltz	a0,353a <__sread+0x20>
    352c:	487c                	lw	a5,84(s0)
    352e:	97aa                	add	a5,a5,a0
    3530:	c87c                	sw	a5,84(s0)
    3532:	40b2                	lw	ra,12(sp)
    3534:	4422                	lw	s0,8(sp)
    3536:	0141                	addi	sp,sp,16
    3538:	8082                	ret
    353a:	245e                	lhu	a5,12(s0)
    353c:	777d                	lui	a4,0xfffff
    353e:	177d                	addi	a4,a4,-1
    3540:	8ff9                	and	a5,a5,a4
    3542:	a45e                	sh	a5,12(s0)
    3544:	b7fd                	j	3532 <__sread+0x18>

00003546 <__swrite>:
    3546:	25de                	lhu	a5,12(a1)
    3548:	1101                	addi	sp,sp,-32
    354a:	cc22                	sw	s0,24(sp)
    354c:	ca26                	sw	s1,20(sp)
    354e:	c84a                	sw	s2,16(sp)
    3550:	c64e                	sw	s3,12(sp)
    3552:	ce06                	sw	ra,28(sp)
    3554:	1007f793          	andi	a5,a5,256
    3558:	84aa                	mv	s1,a0
    355a:	842e                	mv	s0,a1
    355c:	8932                	mv	s2,a2
    355e:	89b6                	mv	s3,a3
    3560:	c791                	beqz	a5,356c <__swrite+0x26>
    3562:	00e59583          	lh	a1,14(a1)
    3566:	4689                	li	a3,2
    3568:	4601                	li	a2,0
    356a:	2209                	jal	366c <_lseek_r>
    356c:	245e                	lhu	a5,12(s0)
    356e:	777d                	lui	a4,0xfffff
    3570:	177d                	addi	a4,a4,-1
    3572:	8ff9                	and	a5,a5,a4
    3574:	a45e                	sh	a5,12(s0)
    3576:	00e41583          	lh	a1,14(s0)
    357a:	4462                	lw	s0,24(sp)
    357c:	40f2                	lw	ra,28(sp)
    357e:	86ce                	mv	a3,s3
    3580:	864a                	mv	a2,s2
    3582:	49b2                	lw	s3,12(sp)
    3584:	4942                	lw	s2,16(sp)
    3586:	8526                	mv	a0,s1
    3588:	44d2                	lw	s1,20(sp)
    358a:	6105                	addi	sp,sp,32
    358c:	a825                	j	35c4 <_write_r>

0000358e <__sseek>:
    358e:	1141                	addi	sp,sp,-16
    3590:	c422                	sw	s0,8(sp)
    3592:	842e                	mv	s0,a1
    3594:	00e59583          	lh	a1,14(a1)
    3598:	c606                	sw	ra,12(sp)
    359a:	28c9                	jal	366c <_lseek_r>
    359c:	57fd                	li	a5,-1
    359e:	245a                	lhu	a4,12(s0)
    35a0:	00f51a63          	bne	a0,a5,35b4 <__sseek+0x26>
    35a4:	77fd                	lui	a5,0xfffff
    35a6:	17fd                	addi	a5,a5,-1
    35a8:	8ff9                	and	a5,a5,a4
    35aa:	a45e                	sh	a5,12(s0)
    35ac:	40b2                	lw	ra,12(sp)
    35ae:	4422                	lw	s0,8(sp)
    35b0:	0141                	addi	sp,sp,16
    35b2:	8082                	ret
    35b4:	6785                	lui	a5,0x1
    35b6:	8fd9                	or	a5,a5,a4
    35b8:	a45e                	sh	a5,12(s0)
    35ba:	c868                	sw	a0,84(s0)
    35bc:	bfc5                	j	35ac <__sseek+0x1e>

000035be <__sclose>:
    35be:	00e59583          	lh	a1,14(a1)
    35c2:	a805                	j	35f2 <_close_r>

000035c4 <_write_r>:
    35c4:	1141                	addi	sp,sp,-16
    35c6:	c422                	sw	s0,8(sp)
    35c8:	842a                	mv	s0,a0
    35ca:	852e                	mv	a0,a1
    35cc:	85b2                	mv	a1,a2
    35ce:	8636                	mv	a2,a3
    35d0:	9001aa23          	sw	zero,-1772(gp) # 20000194 <errno>
    35d4:	c606                	sw	ra,12(sp)
    35d6:	abafe0ef          	jal	ra,1890 <_write>
    35da:	57fd                	li	a5,-1
    35dc:	00f51763          	bne	a0,a5,35ea <_write_r+0x26>
    35e0:	91418793          	addi	a5,gp,-1772 # 20000194 <errno>
    35e4:	439c                	lw	a5,0(a5)
    35e6:	c391                	beqz	a5,35ea <_write_r+0x26>
    35e8:	c01c                	sw	a5,0(s0)
    35ea:	40b2                	lw	ra,12(sp)
    35ec:	4422                	lw	s0,8(sp)
    35ee:	0141                	addi	sp,sp,16
    35f0:	8082                	ret

000035f2 <_close_r>:
    35f2:	1141                	addi	sp,sp,-16
    35f4:	c422                	sw	s0,8(sp)
    35f6:	842a                	mv	s0,a0
    35f8:	852e                	mv	a0,a1
    35fa:	9001aa23          	sw	zero,-1772(gp) # 20000194 <errno>
    35fe:	c606                	sw	ra,12(sp)
    3600:	20c5                	jal	36e0 <_close>
    3602:	57fd                	li	a5,-1
    3604:	00f51763          	bne	a0,a5,3612 <_close_r+0x20>
    3608:	91418793          	addi	a5,gp,-1772 # 20000194 <errno>
    360c:	439c                	lw	a5,0(a5)
    360e:	c391                	beqz	a5,3612 <_close_r+0x20>
    3610:	c01c                	sw	a5,0(s0)
    3612:	40b2                	lw	ra,12(sp)
    3614:	4422                	lw	s0,8(sp)
    3616:	0141                	addi	sp,sp,16
    3618:	8082                	ret

0000361a <_fstat_r>:
    361a:	1141                	addi	sp,sp,-16
    361c:	c422                	sw	s0,8(sp)
    361e:	842a                	mv	s0,a0
    3620:	852e                	mv	a0,a1
    3622:	85b2                	mv	a1,a2
    3624:	9001aa23          	sw	zero,-1772(gp) # 20000194 <errno>
    3628:	c606                	sw	ra,12(sp)
    362a:	20c9                	jal	36ec <_fstat>
    362c:	57fd                	li	a5,-1
    362e:	00f51763          	bne	a0,a5,363c <_fstat_r+0x22>
    3632:	91418793          	addi	a5,gp,-1772 # 20000194 <errno>
    3636:	439c                	lw	a5,0(a5)
    3638:	c391                	beqz	a5,363c <_fstat_r+0x22>
    363a:	c01c                	sw	a5,0(s0)
    363c:	40b2                	lw	ra,12(sp)
    363e:	4422                	lw	s0,8(sp)
    3640:	0141                	addi	sp,sp,16
    3642:	8082                	ret

00003644 <_isatty_r>:
    3644:	1141                	addi	sp,sp,-16
    3646:	c422                	sw	s0,8(sp)
    3648:	842a                	mv	s0,a0
    364a:	852e                	mv	a0,a1
    364c:	9001aa23          	sw	zero,-1772(gp) # 20000194 <errno>
    3650:	c606                	sw	ra,12(sp)
    3652:	205d                	jal	36f8 <_isatty>
    3654:	57fd                	li	a5,-1
    3656:	00f51763          	bne	a0,a5,3664 <_isatty_r+0x20>
    365a:	91418793          	addi	a5,gp,-1772 # 20000194 <errno>
    365e:	439c                	lw	a5,0(a5)
    3660:	c391                	beqz	a5,3664 <_isatty_r+0x20>
    3662:	c01c                	sw	a5,0(s0)
    3664:	40b2                	lw	ra,12(sp)
    3666:	4422                	lw	s0,8(sp)
    3668:	0141                	addi	sp,sp,16
    366a:	8082                	ret

0000366c <_lseek_r>:
    366c:	1141                	addi	sp,sp,-16
    366e:	c422                	sw	s0,8(sp)
    3670:	842a                	mv	s0,a0
    3672:	852e                	mv	a0,a1
    3674:	85b2                	mv	a1,a2
    3676:	8636                	mv	a2,a3
    3678:	9001aa23          	sw	zero,-1772(gp) # 20000194 <errno>
    367c:	c606                	sw	ra,12(sp)
    367e:	2059                	jal	3704 <_lseek>
    3680:	57fd                	li	a5,-1
    3682:	00f51763          	bne	a0,a5,3690 <_lseek_r+0x24>
    3686:	91418793          	addi	a5,gp,-1772 # 20000194 <errno>
    368a:	439c                	lw	a5,0(a5)
    368c:	c391                	beqz	a5,3690 <_lseek_r+0x24>
    368e:	c01c                	sw	a5,0(s0)
    3690:	40b2                	lw	ra,12(sp)
    3692:	4422                	lw	s0,8(sp)
    3694:	0141                	addi	sp,sp,16
    3696:	8082                	ret

00003698 <memchr>:
    3698:	0ff5f593          	andi	a1,a1,255
    369c:	962a                	add	a2,a2,a0
    369e:	00c51463          	bne	a0,a2,36a6 <memchr+0xe>
    36a2:	4501                	li	a0,0
    36a4:	8082                	ret
    36a6:	211c                	lbu	a5,0(a0)
    36a8:	feb78ee3          	beq	a5,a1,36a4 <memchr+0xc>
    36ac:	0505                	addi	a0,a0,1
    36ae:	bfc5                	j	369e <memchr+0x6>

000036b0 <__malloc_lock>:
    36b0:	8082                	ret

000036b2 <__malloc_unlock>:
    36b2:	8082                	ret

000036b4 <_read_r>:
    36b4:	1141                	addi	sp,sp,-16
    36b6:	c422                	sw	s0,8(sp)
    36b8:	842a                	mv	s0,a0
    36ba:	852e                	mv	a0,a1
    36bc:	85b2                	mv	a1,a2
    36be:	8636                	mv	a2,a3
    36c0:	9001aa23          	sw	zero,-1772(gp) # 20000194 <errno>
    36c4:	c606                	sw	ra,12(sp)
    36c6:	20a9                	jal	3710 <_read>
    36c8:	57fd                	li	a5,-1
    36ca:	00f51763          	bne	a0,a5,36d8 <_read_r+0x24>
    36ce:	91418793          	addi	a5,gp,-1772 # 20000194 <errno>
    36d2:	439c                	lw	a5,0(a5)
    36d4:	c391                	beqz	a5,36d8 <_read_r+0x24>
    36d6:	c01c                	sw	a5,0(s0)
    36d8:	40b2                	lw	ra,12(sp)
    36da:	4422                	lw	s0,8(sp)
    36dc:	0141                	addi	sp,sp,16
    36de:	8082                	ret

000036e0 <_close>:
    36e0:	05800793          	li	a5,88
    36e4:	90f1aa23          	sw	a5,-1772(gp) # 20000194 <errno>
    36e8:	557d                	li	a0,-1
    36ea:	8082                	ret

000036ec <_fstat>:
    36ec:	05800793          	li	a5,88
    36f0:	90f1aa23          	sw	a5,-1772(gp) # 20000194 <errno>
    36f4:	557d                	li	a0,-1
    36f6:	8082                	ret

000036f8 <_isatty>:
    36f8:	05800793          	li	a5,88
    36fc:	90f1aa23          	sw	a5,-1772(gp) # 20000194 <errno>
    3700:	4501                	li	a0,0
    3702:	8082                	ret

00003704 <_lseek>:
    3704:	05800793          	li	a5,88
    3708:	90f1aa23          	sw	a5,-1772(gp) # 20000194 <errno>
    370c:	557d                	li	a0,-1
    370e:	8082                	ret

00003710 <_read>:
    3710:	05800793          	li	a5,88
    3714:	90f1aa23          	sw	a5,-1772(gp) # 20000194 <errno>
    3718:	557d                	li	a0,-1
    371a:	8082                	ret
    371c:	5848                	lw	a0,52(s0)
    371e:	20313137          	lui	sp,0x20313
    3722:	6552                	flw	fa0,20(sp)
    3724:	6461                	lui	s0,0x18
    3726:	5420                	lw	s0,104(s0)
    3728:	6d69                	lui	s10,0x1a
    372a:	6f65                	lui	t5,0x19
    372c:	7475                	lui	s0,0xffffd
    372e:	0d21                	addi	s10,s10,8
    3730:	0000                	unimp
    3732:	0000                	unimp
    3734:	5848                	lw	a0,52(s0)
    3736:	20313137          	lui	sp,0x20313
    373a:	6154                	flw	fa3,4(a0)
    373c:	6572                	flw	fa0,28(sp)
    373e:	4620                	lw	s0,72(a2)
    3740:	6961                	lui	s2,0x18
    3742:	656c                	flw	fa1,76(a0)
    3744:	2164                	lbu	s1,6(a0)
    3746:	000d                	c.nop	3
    3748:	5848                	lw	a0,52(s0)
    374a:	20313137          	lui	sp,0x20313
    374e:	6154                	flw	fa3,4(a0)
    3750:	6572                	flw	fa0,28(sp)
    3752:	4420                	lw	s0,72(s0)
    3754:	21656e6f          	jal	t3,5996a <_data_lma+0x55ebe>
    3758:	4f20                	lw	s0,88(a4)
    375a:	6666                	flw	fa2,88(sp)
    375c:	20746573          	csrrsi	a0,0x207,8
    3760:	203d                	jal	378e <_read+0x7e>
    3762:	6425                	lui	s0,0x9
    3764:	2820                	lbu	s0,18(s0)
    3766:	706d6173          	csrrsi	sp,0x706,26
    376a:	656c                	flw	fa1,76(a0)
    376c:	253d                	jal	3d9a <_data_lma+0x2ee>
    376e:	2975                	jal	3c2a <_data_lma+0x17e>
    3770:	0a0d                	addi	s4,s4,3
    3772:	0000                	unimp
    3774:	7550                	flw	fa2,44(a0)
    3776:	6f526873          	csrrsi	a6,0x6f5,4
    377a:	2064                	lbu	s1,6(s0)
    377c:	7845                	lui	a6,0xffff1
    377e:	6574                	flw	fa3,76(a0)
    3780:	646e                	flw	fs0,216(sp)
    3782:	6e69                	lui	t3,0x1a
    3784:	2e2e2e67          	0x2e2e2e67
    3788:	000d                	c.nop	3
    378a:	0000                	unimp
    378c:	7550                	flw	fa2,44(a0)
    378e:	6f526873          	csrrsi	a6,0x6f5,4
    3792:	2064                	lbu	s1,6(s0)
    3794:	6552                	flw	fa0,20(sp)
    3796:	7274                	flw	fa3,100(a2)
    3798:	6361                	lui	t1,0x18
    379a:	6974                	flw	fa3,84(a0)
    379c:	676e                	flw	fa4,216(sp)
    379e:	2e2e                	lhu	a1,26(a2)
    37a0:	0d2e                	slli	s10,s10,0xb
    37a2:	0000                	unimp
    37a4:	7550                	flw	fa2,44(a0)
    37a6:	6f526873          	csrrsi	a6,0x6f5,4
    37aa:	2064                	lbu	s1,6(s0)
    37ac:	706f7453          	0x706f7453
    37b0:	6570                	flw	fa2,76(a0)
    37b2:	2e64                	lbu	s1,30(a2)
    37b4:	000d                	c.nop	3
    37b6:	0000                	unimp
    37b8:	08ec                	addi	a1,sp,92
    37ba:	0000                	unimp
    37bc:	08f8                	addi	a4,sp,92
    37be:	0000                	unimp
    37c0:	0a3a                	slli	s4,s4,0xe
    37c2:	0000                	unimp
    37c4:	0a3a                	slli	s4,s4,0xe
    37c6:	0000                	unimp
    37c8:	0a3a                	slli	s4,s4,0xe
    37ca:	0000                	unimp
    37cc:	0a3a                	slli	s4,s4,0xe
    37ce:	0000                	unimp
    37d0:	09ca                	slli	s3,s3,0x12
    37d2:	0000                	unimp
    37d4:	09de                	slli	s3,s3,0x17
    37d6:	0000                	unimp
    37d8:	09f6                	slli	s3,s3,0x1d
    37da:	0000                	unimp
    37dc:	0a1a                	slli	s4,s4,0x6
    37de:	0000                	unimp
    37e0:	0a2e                	slli	s4,s4,0xb
    37e2:	0000                	unimp
    37e4:	0cb6                	slli	s9,s9,0xd
    37e6:	0000                	unimp
    37e8:	0cd6                	slli	s9,s9,0x15
    37ea:	0000                	unimp
    37ec:	0d10                	addi	a2,sp,656
    37ee:	0000                	unimp
    37f0:	0d24                	addi	s1,sp,664
    37f2:	0000                	unimp
    37f4:	0d3c                	addi	a5,sp,664
    37f6:	0000                	unimp
    37f8:	0d54                	addi	a3,sp,660
    37fa:	0000                	unimp
    37fc:	0d8e                	slli	s11,s11,0x3
    37fe:	0000                	unimp
    3800:	0db4                	addi	a3,sp,728
    3802:	0000                	unimp
    3804:	0dc8                	addi	a0,sp,724
    3806:	0000                	unimp
    3808:	6e49                	lui	t3,0x12
    380a:	656e                	flw	fa0,216(sp)
    380c:	4472                	lw	s0,28(sp)
    380e:	20726f6f          	jal	t5,2a214 <_data_lma+0x26768>
    3812:	736f6c43          	fmadd.d	fs8,ft10,fs6,fa4,unknown
    3816:	6e69                	lui	t3,0x1a
    3818:	2e2e2e67          	0x2e2e2e67
    381c:	000d                	c.nop	3
    381e:	0000                	unimp
    3820:	6e49                	lui	t3,0x12
    3822:	656e                	flw	fa0,216(sp)
    3824:	4472                	lw	s0,28(sp)
    3826:	20726f6f          	jal	t5,2a22c <_data_lma+0x26780>
    382a:	6e49                	lui	t3,0x12
    382c:	7469                	lui	s0,0xffffa
    382e:	4f20                	lw	s0,88(a4)
    3830:	64202e4b          	0x64202e4b
    3834:	6665                	lui	a2,0x19
    3836:	7561                	lui	a0,0xffff8
    3838:	746c                	flw	fa1,108(s0)
    383a:	6320                	flw	fs0,64(a4)
    383c:	6f6c                	flw	fa1,92(a4)
    383e:	61206573          	csrrsi	a0,0x612,0
    3842:	676e                	flw	fa4,216(sp)
    3844:	656c                	flw	fa1,76(a0)
    3846:	253d                	jal	3e74 <_data_lma+0x3c8>
    3848:	0d64                	addi	s1,sp,668
    384a:	000a                	c.slli	zero,0x2
    384c:	6e49                	lui	t3,0x12
    384e:	656e                	flw	fa0,216(sp)
    3850:	4472                	lw	s0,28(sp)
    3852:	20726f6f          	jal	t5,2a258 <_data_lma+0x267ac>
    3856:	6e65704f          	fnmadd.q	ft0,fa0,ft6,fa3
    385a:	6e69                	lui	t3,0x1a
    385c:	2e2e2e67          	0x2e2e2e67
    3860:	000d                	c.nop	3
    3862:	0000                	unimp
    3864:	6e49                	lui	t3,0x12
    3866:	656e                	flw	fa0,216(sp)
    3868:	4472                	lw	s0,28(sp)
    386a:	20726f6f          	jal	t5,2a270 <_data_lma+0x267c4>
    386e:	6e41                	lui	t3,0x10
    3870:	20656c67          	0x20656c67
    3874:	3e2d                	jal	33ae <_printf_i+0x160>
    3876:	2520                	lbu	s0,10(a0)
    3878:	2064                	lbu	s1,6(s0)
    387a:	6564                	flw	fs1,76(a0)
    387c:	70202c67          	0x70202c67
    3880:	6c75                	lui	s8,0x1d
    3882:	3d206573          	csrrsi	a0,0x3d2,0
    3886:	2520                	lbu	s0,10(a0)
    3888:	2064                	lbu	s1,6(s0)
    388a:	7375                	lui	t1,0xffffd
    388c:	0a0d                	addi	s4,s4,3
    388e:	0000                	unimp
    3890:	e980                	fsw	fs0,16(a1)
    3892:	ffff                	0xffff
    3894:	e8aa                	fsw	fa0,80(sp)
    3896:	ffff                	0xffff
    3898:	e97a                	fsw	ft10,144(sp)
    389a:	ffff                	0xffff
    389c:	e8b2                	fsw	fa2,80(sp)
    389e:	ffff                	0xffff
    38a0:	e97a                	fsw	ft10,144(sp)
    38a2:	ffff                	0xffff
    38a4:	e878                	fsw	fa4,84(s0)
    38a6:	ffff                	0xffff
    38a8:	e97a                	fsw	ft10,144(sp)
    38aa:	ffff                	0xffff
    38ac:	e8b2                	fsw	fa2,80(sp)
    38ae:	ffff                	0xffff
    38b0:	e8aa                	fsw	fa0,80(sp)
    38b2:	ffff                	0xffff
    38b4:	e8aa                	fsw	fa0,80(sp)
    38b6:	ffff                	0xffff
    38b8:	e878                	fsw	fa4,84(s0)
    38ba:	ffff                	0xffff
    38bc:	e8b2                	fsw	fa2,80(sp)
    38be:	ffff                	0xffff
    38c0:	e8b8                	fsw	fa4,80(s1)
    38c2:	ffff                	0xffff
    38c4:	e8b8                	fsw	fa4,80(s1)
    38c6:	ffff                	0xffff
    38c8:	e8b8                	fsw	fa4,80(s1)
    38ca:	ffff                	0xffff
    38cc:	e878                	fsw	fa4,84(s0)
    38ce:	ffff                	0xffff
    38d0:	e86a                	fsw	fs10,16(sp)
    38d2:	ffff                	0xffff
    38d4:	e86a                	fsw	fs10,16(sp)
    38d6:	ffff                	0xffff
    38d8:	e93a                	fsw	fa4,144(sp)
    38da:	ffff                	0xffff
    38dc:	ea16                	fsw	ft5,20(sp)
    38de:	ffff                	0xffff
    38e0:	e93a                	fsw	fa4,144(sp)
    38e2:	ffff                	0xffff
    38e4:	e838                	fsw	fa4,80(s0)
    38e6:	ffff                	0xffff
    38e8:	e93a                	fsw	fa4,144(sp)
    38ea:	ffff                	0xffff
    38ec:	ea16                	fsw	ft5,20(sp)
    38ee:	ffff                	0xffff
    38f0:	e86a                	fsw	fs10,16(sp)
    38f2:	ffff                	0xffff
    38f4:	e86a                	fsw	fs10,16(sp)
    38f6:	ffff                	0xffff
    38f8:	e838                	fsw	fa4,80(s0)
    38fa:	ffff                	0xffff
    38fc:	ea16                	fsw	ft5,20(sp)
    38fe:	ffff                	0xffff
    3900:	e878                	fsw	fa4,84(s0)
    3902:	ffff                	0xffff
    3904:	e878                	fsw	fa4,84(s0)
    3906:	ffff                	0xffff
    3908:	e878                	fsw	fa4,84(s0)
    390a:	ffff                	0xffff
    390c:	e838                	fsw	fa4,80(s0)
    390e:	ffff                	0xffff

00003910 <__clz_tab>:
    3910:	0100 0202 0303 0303 0404 0404 0404 0404     ................
    3920:	0505 0505 0505 0505 0505 0505 0505 0505     ................
    3930:	0606 0606 0606 0606 0606 0606 0606 0606     ................
    3940:	0606 0606 0606 0606 0606 0606 0606 0606     ................
    3950:	0707 0707 0707 0707 0707 0707 0707 0707     ................
    3960:	0707 0707 0707 0707 0707 0707 0707 0707     ................
    3970:	0707 0707 0707 0707 0707 0707 0707 0707     ................
    3980:	0707 0707 0707 0707 0707 0707 0707 0707     ................
    3990:	0808 0808 0808 0808 0808 0808 0808 0808     ................
    39a0:	0808 0808 0808 0808 0808 0808 0808 0808     ................
    39b0:	0808 0808 0808 0808 0808 0808 0808 0808     ................
    39c0:	0808 0808 0808 0808 0808 0808 0808 0808     ................
    39d0:	0808 0808 0808 0808 0808 0808 0808 0808     ................
    39e0:	0808 0808 0808 0808 0808 0808 0808 0808     ................
    39f0:	0808 0808 0808 0808 0808 0808 0808 0808     ................
    3a00:	0808 0808 0808 0808 0808 0808 0808 0808     ................

00003a10 <__sf_fake_stderr>:
	...

00003a30 <__sf_fake_stdin>:
	...

00003a50 <__sf_fake_stdout>:
	...
    3a70:	2d23 2b30 0020 0000 6c68 004c 6665 4567     #-0+ ...hlL.efgE
    3a80:	4746 0000 3130 3332 3534 3736 3938 4241     FG..0123456789AB
    3a90:	4443 4645 0000 0000 3130 3332 3534 3736     CDEF....01234567
    3aa0:	3938 6261 6463 6665 0000 0000               89abcdef....
